((ivocab
Vocab
p0
(dp1
S'tag_dict'
p2
(dp3
S'PRP$'
p4
I1
sS'VBG'
p5
I2
sS'FW'
p6
I18
sS'<root>'
p7
I4
sS'VBN'
p8
I5
sS'POS'
p9
I19
sS"''"
p10
I7
sS'VBP'
p11
I8
sS'WDT'
p12
I9
sS'JJ'
p13
I10
sS'WP'
p14
I11
sS'VBZ'
p15
I12
sS'DT'
p16
I13
sS'#'
p17
I14
sS'RP'
p18
I15
sS'$'
p19
I16
sS'NN'
p20
I17
sS'<s>'
p21
I0
sS'VBD'
p22
I3
sS','
p23
I6
sS'.'
p24
I20
sS'TO'
p25
I21
sS'PRP'
p26
I22
sS'RB'
p27
I23
sS'-LRB-'
p28
I24
sS':'
p29
I25
sS'NNS'
p30
I26
sS'NNP'
p31
I27
sS'``'
p32
I28
sS'WRB'
p33
I29
sS'CC'
p34
I30
sS'<null>'
p35
I31
sS'PDT'
p36
I32
sS'RBS'
p37
I33
sS'RBR'
p38
I34
sS'CD'
p39
I35
sS'EX'
p40
I36
sS'IN'
p41
I37
sS'WP$'
p42
I38
sS'MD'
p43
I39
sS'NNPS'
p44
I40
sS'-RRB-'
p45
I41
sS'JJS'
p46
I42
sS'JJR'
p47
I43
sS'VB'
p48
I44
sS'UH'
p49
I45
ssS'tags'
p50
(lp51
g21
ag4
ag5
ag22
ag7
ag8
ag23
ag10
ag11
ag12
ag13
ag14
ag15
ag16
ag17
ag18
ag19
ag20
ag6
ag9
ag24
ag25
ag26
ag27
ag28
ag29
ag30
ag31
ag32
ag33
ag34
ag35
ag36
ag37
ag38
ag39
ag40
ag41
ag42
ag43
ag44
ag45
ag46
ag47
ag48
ag49
asS'labels'
p52
(lp53
S'rroot'
p54
aS'cc'
p55
aS'number'
p56
aS'ccomp'
p57
aS'possessive'
p58
aS'prt'
p59
aS'num'
p60
aS'nsubjpass'
p61
aS'csubj'
p62
aS'conj'
p63
aS'dobj'
p64
aS'nn'
p65
aS'neg'
p66
aS'discourse'
p67
aS'mark'
p68
aS'auxpass'
p69
aS'infmod'
p70
aS'mwe'
p71
aS'advcl'
p72
aS'aux'
p73
aS'prep'
p74
aS'parataxis'
p75
aS'nsubj'
p76
aS'<null>'
p77
aS'rcmod'
p78
aS'advmod'
p79
aS'punct'
p80
aS'quantmod'
p81
aS'tmod'
p82
aS'acomp'
p83
aS'pcomp'
p84
aS'poss'
p85
aS'npadvmod'
p86
aS'xcomp'
p87
aS'cop'
p88
aS'partmod'
p89
aS'dep'
p90
aS'appos'
p91
aS'det'
p92
aS'amod'
p93
aS'pobj'
p94
aS'iobj'
p95
aS'expl'
p96
aS'predet'
p97
aS'preconj'
p98
aS'root'
p99
asS'actions'
p100
(lp101
S'SHIFT'
p102
aS'LEFT-ARC:rroot'
p103
aS'LEFT-ARC:cc'
p104
aS'LEFT-ARC:number'
p105
aS'LEFT-ARC:ccomp'
p106
aS'LEFT-ARC:possessive'
p107
aS'LEFT-ARC:prt'
p108
aS'LEFT-ARC:num'
p109
aS'LEFT-ARC:nsubjpass'
p110
aS'LEFT-ARC:csubj'
p111
aS'LEFT-ARC:conj'
p112
aS'LEFT-ARC:dobj'
p113
aS'LEFT-ARC:nn'
p114
aS'LEFT-ARC:neg'
p115
aS'LEFT-ARC:discourse'
p116
aS'LEFT-ARC:mark'
p117
aS'LEFT-ARC:auxpass'
p118
aS'LEFT-ARC:infmod'
p119
aS'LEFT-ARC:mwe'
p120
aS'LEFT-ARC:advcl'
p121
aS'LEFT-ARC:aux'
p122
aS'LEFT-ARC:prep'
p123
aS'LEFT-ARC:parataxis'
p124
aS'LEFT-ARC:nsubj'
p125
aS'LEFT-ARC:<null>'
p126
aS'LEFT-ARC:rcmod'
p127
aS'LEFT-ARC:advmod'
p128
aS'LEFT-ARC:punct'
p129
aS'LEFT-ARC:quantmod'
p130
aS'LEFT-ARC:tmod'
p131
aS'LEFT-ARC:acomp'
p132
aS'LEFT-ARC:pcomp'
p133
aS'LEFT-ARC:poss'
p134
aS'LEFT-ARC:npadvmod'
p135
aS'LEFT-ARC:xcomp'
p136
aS'LEFT-ARC:cop'
p137
aS'LEFT-ARC:partmod'
p138
aS'LEFT-ARC:dep'
p139
aS'LEFT-ARC:appos'
p140
aS'LEFT-ARC:det'
p141
aS'LEFT-ARC:amod'
p142
aS'LEFT-ARC:pobj'
p143
aS'LEFT-ARC:iobj'
p144
aS'LEFT-ARC:expl'
p145
aS'LEFT-ARC:predet'
p146
aS'LEFT-ARC:preconj'
p147
aS'LEFT-ARC:root'
p148
aS'RIGHT-ARC:rroot'
p149
aS'RIGHT-ARC:cc'
p150
aS'RIGHT-ARC:number'
p151
aS'RIGHT-ARC:ccomp'
p152
aS'RIGHT-ARC:possessive'
p153
aS'RIGHT-ARC:prt'
p154
aS'RIGHT-ARC:num'
p155
aS'RIGHT-ARC:nsubjpass'
p156
aS'RIGHT-ARC:csubj'
p157
aS'RIGHT-ARC:conj'
p158
aS'RIGHT-ARC:dobj'
p159
aS'RIGHT-ARC:nn'
p160
aS'RIGHT-ARC:neg'
p161
aS'RIGHT-ARC:discourse'
p162
aS'RIGHT-ARC:mark'
p163
aS'RIGHT-ARC:auxpass'
p164
aS'RIGHT-ARC:infmod'
p165
aS'RIGHT-ARC:mwe'
p166
aS'RIGHT-ARC:advcl'
p167
aS'RIGHT-ARC:aux'
p168
aS'RIGHT-ARC:prep'
p169
aS'RIGHT-ARC:parataxis'
p170
aS'RIGHT-ARC:nsubj'
p171
aS'RIGHT-ARC:<null>'
p172
aS'RIGHT-ARC:rcmod'
p173
aS'RIGHT-ARC:advmod'
p174
aS'RIGHT-ARC:punct'
p175
aS'RIGHT-ARC:quantmod'
p176
aS'RIGHT-ARC:tmod'
p177
aS'RIGHT-ARC:acomp'
p178
aS'RIGHT-ARC:pcomp'
p179
aS'RIGHT-ARC:poss'
p180
aS'RIGHT-ARC:npadvmod'
p181
aS'RIGHT-ARC:xcomp'
p182
aS'RIGHT-ARC:cop'
p183
aS'RIGHT-ARC:partmod'
p184
aS'RIGHT-ARC:dep'
p185
aS'RIGHT-ARC:appos'
p186
aS'RIGHT-ARC:det'
p187
aS'RIGHT-ARC:amod'
p188
aS'RIGHT-ARC:pobj'
p189
aS'RIGHT-ARC:iobj'
p190
aS'RIGHT-ARC:expl'
p191
aS'RIGHT-ARC:predet'
p192
aS'RIGHT-ARC:preconj'
p193
aS'RIGHT-ARC:root'
p194
asS'word_dict'
p195
(dp196
S'limited'
p197
I2
sS'consolidated'
p198
I4
sS'magnetic'
p199
I5
sS'Hunt'
p200
I2220
sS'self-incrimination'
p201
I8
sS'four'
p202
I9
sS'facilities'
p203
I10
sS'protest'
p204
I11
sS'Does'
p205
I12
sS'controversial'
p206
I13
sS'aides'
p207
I14
sS'consists'
p208
I15
sS'Communist'
p209
I16
sS'oldest'
p210
I17
sS'Until'
p211
I18
sS'consider'
p212
I2409
sS'relationships'
p213
I20
sS'whose'
p214
I116
sS'votes'
p215
I22
sS'public-relations'
p216
I23
sS'violate'
p217
I24
sS'eligible'
p218
I25
sS'electricity'
p219
I26
sS'Honda'
p220
I27
sS'Oka'
p221
I29
sS'investigation'
p222
I1597
sS'Western'
p223
I32
sS'under'
p224
I33
sS'buyer'
p225
I4270
sS'herbicide'
p226
I34
sS'pride'
p227
I35
sS'worth'
p228
I36
sS'founding'
p229
I3881
sS'placed'
p230
I4729
sS'pact'
p231
I3227
sS'legislators'
p232
I40
sS'Pilgrim'
p233
I41
sS'propane'
p234
I43
sS'Industry'
p235
I44
sS'1,111'
p236
I45
sS'costume'
p237
I4297
sS'homes'
p238
I4424
sS'stolen'
p239
I2599
sS'every'
p240
I47
sS'Pressed'
p241
I48
sS'reforms'
p242
I49
sS'affect'
p243
I50
sS'GM'
p244
I51
sS'sleek'
p245
I52
sS'bringing'
p246
I53
sS'trailer'
p247
I2775
sS'vast'
p248
I55
sS'Continental'
p249
I56
sS'disturb'
p250
I57
sS'Maxwell'
p251
I1716
sS'investigator'
p252
I58
sS'crops'
p253
I59
sS'cause'
p254
I4029
sS'companies'
p255
I61
sS'solution'
p256
I62
sS'viable'
p257
I1601
sS'samurai'
p258
I64
sS'Nasdaq'
p259
I65
sS'specialties'
p260
I66
sS'announced'
p261
I4030
sS'cholesterol'
p262
I68
sS'tours'
p263
I2419
sS'Paul'
p264
I71
sS'Hess'
p265
I72
sS'heading'
p266
I73
sS'Europeans'
p267
I458
sS'non-violent'
p268
I75
sS'Pinkerton'
p269
I76
sS'charter'
p270
I77
sS'expanded'
p271
I3234
sS'force'
p272
I79
sS'restated'
p273
I2421
sS'guidelines'
p274
I515
sS'estimates'
p275
I82
sS'direct'
p276
I513
sS'anti-smoking'
p277
I84
sS'chef'
p278
I85
sS'elegant'
p279
I86
sS'second'
p280
I87
sS'street'
p281
I88
sS'Gideon'
p282
I91
sS'Collins'
p283
I92
sS'sterile'
p284
I93
sS'machines'
p285
I94
sS'Saint-Saens'
p286
I95
sS'even'
p287
I96
sS'established'
p288
I97
sS'Counterpoint'
p289
I98
sS'errors'
p290
I99
sS'previously'
p291
I4662
sS'postpone'
p292
I4027
sS'defenses'
p293
I1606
sS'contributed'
p294
I102
sS'fingers'
p295
I103
sS'poison'
p296
I104
sS'spokesman'
p297
I105
sS'hostile'
p298
I4054
sS'above'
p299
I106
sS'conduct'
p300
I4296
sS'new'
p301
I108
sS'net'
p302
I109
sS'increasing'
p303
I110
sS'officially'
p304
I111
sS'consisting'
p305
I112
sS'seeks'
p306
I113
sS'shocks'
p307
I114
sS'specialist'
p308
I115
sS'Brown'
p309
I2428
sS'3/8'
p310
I3938
sS'men'
p311
I118
sS'disposable'
p312
I119
sS'Budget'
p313
I120
sS'here'
p314
I121
sS'hundreds'
p315
I122
sS'conglomerate'
p316
I123
sS'reported'
p317
I124
sS'protection'
p318
I125
sS'studio'
p319
I126
sS'active'
p320
I127
sS'100'
p321
I128
sS'101'
p322
I129
sS'obtained'
p323
I130
sS'1985'
p324
I4681
sS'balance'
p325
I131
sS'Merrill'
p326
I132
sS'ventures'
p327
I135
sS'items'
p328
I136
sS'employees'
p329
I137
sS'climbed'
p330
I138
sS'regulators'
p331
I4043
sS'reports'
p332
I140
sS'ignoring'
p333
I141
sS'credit'
p334
I142
sS'Stelco'
p335
I143
sS'Wellington'
p336
I4412
sS'neurologist'
p337
I144
sS'military'
p338
I145
sS'settled'
p339
I146
sS'issuers'
p340
I148
sS'criticism'
p341
I149
sS'golden'
p342
I150
sS'Petty'
p343
I151
sS'Group'
p344
I152
sS'home'
p345
I4609
sS'campaign'
p346
I154
sS'owed'
p347
I3247
sS'St.'
p348
I157
sS')'
p349
I4459
sS'Relations'
p350
I954
sS'replace'
p351
I159
sS'brought'
p352
I160
sS'Also'
p353
I161
sS'undesirable'
p354
I162
sS'Health'
p355
I163
sS'Khan'
p356
I164
sS'Basin'
p357
I165
sS'total'
p358
I166
sS'indictment'
p359
I867
sS'unit'
p360
I168
sS'hoping'
p361
I3250
sS'contractions'
p362
I4660
sS'swings'
p363
I170
sS'marketers'
p364
I171
sS'would'
p365
I172
sg21
I0
sS'nine'
p366
I2620
sS'hospital'
p367
I174
sS'Nonetheless'
p368
I175
sS'June'
p369
I176
sS'chooses'
p370
I177
sS'music'
p371
I178
sS'asset'
p372
I179
sS'strike'
p373
I181
sS'survive'
p374
I182
sS'type'
p375
I183
sS'until'
p376
I184
sS'PaineWebber'
p377
I185
sS'main'
p378
I4425
sS'Ark.'
p379
I188
sS'relax'
p380
I189
sS'successful'
p381
I190
sS'brings'
p382
I191
sS'training'
p383
I1619
sS'audit'
p384
I4493
sS'hurt'
p385
I193
sS'phone'
p386
I194
sS'Datapoint'
p387
I195
sS'Stock'
p388
I3263
sS'arms'
p389
I196
sS'charged'
p390
I3001
sS'emeritus'
p391
I199
sS'90'
p392
I200
sS'hole'
p393
I201
sS'92'
p394
I202
sS'blocking'
p395
I203
sS'circumstances'
p396
I205
sS'Salomon'
p397
I1247
sS'1990'
p398
I207
sS'1993'
p399
I208
sS'1992'
p400
I209
sS'join'
p401
I117
sS'1994'
p402
I211
sS'1997'
p403
I212
sS'rights'
p404
I213
sS'pursue'
p405
I214
sS'Exchequer'
p406
I3324
sS'work'
p407
I215
sS'gasoline'
p408
I1290
sS'Most'
p409
I3197
sS'movies'
p410
I219
sS'itself'
p411
I3257
sS'era'
p412
I221
sS'install'
p413
I222
sS'leaped'
p414
I223
sS'guise'
p415
I224
sS'experts'
p416
I225
sS'2.3'
p417
I3099
sS'revenues'
p418
I227
sS'my'
p419
I228
sS'example'
p420
I229
sS'male-fertile'
p421
I230
sS'phrase'
p422
I2642
sS'Owen'
p423
I4058
sS'receivables'
p424
I231
sS'La'
p425
I232
sS'cited'
p426
I233
sS'in'
p427
I234
sS'laughs'
p428
I235
sS'November'
p429
I4695
sS'honey'
p430
I237
sS'indicates'
p431
I238
sS'woman'
p432
I4534
sS'caution'
p433
I240
sS'Holding'
p434
I241
sS'Digital'
p435
I242
sS'story'
p436
I3837
sS'attract'
p437
I244
sS'totaled'
p438
I245
sS'risk'
p439
I246
sS'male-sterile'
p440
I247
sS'end'
p441
I249
sS'recovery'
p442
I250
sS'knows'
p443
I2594
sS'carriers'
p444
I251
sS'provide'
p445
I252
sS'Journal'
p446
I253
sS'customers'
p447
I3688
sS'damage'
p448
I255
sS'machine'
p449
I256
sS'how'
p450
I257
sS'hot'
p451
I258
sS'Jack'
p452
I259
sS'accusations'
p453
I260
sS'interview'
p454
I261
sS'gate'
p455
I262
sS'ordinary'
p456
I263
sS'Co.'
p457
I1387
sS'beach'
p458
I265
sS'77.3'
p459
I266
sS'Zealand'
p460
I267
sS'badly'
p461
I268
sS'regional'
p462
I269
sS'minority'
p463
I270
sS'L.'
p464
I271
sS'after'
p465
I272
sS'lab'
p466
I273
sS'Ocean'
p467
I274
sS'Will'
p468
I275
sS'wrong'
p469
I276
sS'mph'
p470
I2448
sS'Yorker'
p471
I1641
sS'Hungary'
p472
I1632
sS'president'
p473
I280
sS'law'
p474
I281
sS'Ebensburg'
p475
I282
sS'purchase'
p476
I283
sS'All'
p477
I284
sS'attempt'
p478
I285
sS'7/8'
p479
I286
sS'effective'
p480
I287
sS'Civil'
p481
I289
sS'wins'
p482
I290
sS'acknowledged'
p483
I292
sS'Tiant'
p484
I293
sS'Telerate'
p485
I294
sS'think'
p486
I1635
sS'cigarettes'
p487
I297
sS'Salinas'
p488
I298
sS'maintain'
p489
I299
sS'chemical'
p490
I3944
sS'Another'
p491
I300
sS'Rouge'
p492
I301
sS'uninsured'
p493
I302
sS'Fannie'
p494
I303
sS'order'
p495
I304
sS'wind'
p496
I305
sS'operations'
p497
I307
sS'Brazil'
p498
I1638
sS'office'
p499
I309
sS'Agnelli'
p500
I310
sS'Blackstone'
p501
I311
sS'fall'
p502
I2455
sS'vary'
p503
I312
sS'satisfied'
p504
I313
sS'parts'
p505
I4466
sS'6.7'
p506
I314
sS'6.6'
p507
I315
sS'6.5'
p508
I316
sS'Ontario'
p509
I1640
sS'6.3'
p510
I318
sS'Inner'
p511
I319
sS'12.5'
p512
I320
sS'innovative'
p513
I321
sS'Canadian'
p514
I3672
sS'before'
p515
I323
sS'His'
p516
I324
sS'fit'
p517
I326
sS'somewhere'
p518
I327
sS'PRI'
p519
I329
sS'50,000'
p520
I330
sS'Here'
p521
I331
sS'better'
p522
I333
sS'production'
p523
I335
sS'16.3'
p524
I336
sS'400'
p525
I3253
sS'Judge'
p526
I338
sS'weeks'
p527
I339
sS'easier'
p528
I340
sS'overcome'
p529
I341
sS'inventory'
p530
I342
sS'then'
p531
I343
sS'them'
p532
I344
sS'S&Ls'
p533
I346
sS'spray'
p534
I4364
sS'weakness'
p535
I348
sS'slate'
p536
I349
sS'safe'
p537
I350
sS'Thomas'
p538
I351
sS'break'
p539
I352
sS'educating'
p540
I353
sS'therapy'
p541
I2097
sS'reaches'
p542
I2183
sS'they'
p543
I356
sS'one'
p544
I1647
sS'slats'
p545
I358
sS'bank'
p546
I359
sS'Control'
p547
I360
sS'represents'
p548
I361
sS'30-year'
p549
I362
sS'pollution-control'
p550
I363
sS'Gary'
p551
I4632
sS'Indeed'
p552
I365
sS'India'
p553
I366
sS'Four'
p554
I367
sS'Milan'
p555
I368
sS'Planning'
p556
I369
sS'Tacker'
p557
I370
sS'each'
p558
I2226
sS'went'
p559
I1268
sS'7.90'
p560
I373
sS'7.91'
p561
I374
sS'Transport'
p562
I375
sS'mean'
p563
I376
sS'lifted'
p564
I377
sS'financial'
p565
I378
sS'directly'
p566
I1653
sS'independent'
p567
I381
sS'series'
p568
I382
sS'crimes'
p569
I383
sS'Eastern'
p570
I4092
sS'Aside'
p571
I385
sS'Stelzer'
p572
I386
sS'marital'
p573
I387
sS'vote'
p574
I1654
sS'used'
p575
I3285
sS'trading'
p576
I2320
sS'combining'
p577
I2332
sS'substantially'
p578
I392
sS'laboratory'
p579
I393
sS'dawn'
p580
I394
sS'sounds'
p581
I1656
sS'contend'
p582
I397
sS'Hahn'
p583
I399
sS'20.125'
p584
I400
sS'network'
p585
I401
sS'driving'
p586
I402
sS'display'
p587
I4739
sS'Chancellor'
p588
I403
sS'waive'
p589
I405
sS'crucial'
p590
I406
sS'monitor'
p591
I4357
sS'vessels'
p592
I407
sS'content'
p593
I408
sS'Transmission'
p594
I3288
sS'encourage'
p595
I410
sS'unrelated'
p596
I411
sS'Capel'
p597
I4086
sS'human-rights'
p598
I414
sS'surprise'
p599
I415
sS'newly'
p600
I416
sS'size'
p601
I1660
sS'sluggish'
p602
I418
sS'Chivas'
p603
I420
sS'housing'
p604
I4687
sS'disputed'
p605
I421
sS'written'
p606
I4326
sS'veto'
p607
I423
sS'University'
p608
I424
sS'given'
p609
I1412
sS'free'
p610
I426
sS'standard'
p611
I427
sS'admits'
p612
I428
sS'disputes'
p613
I430
sS'streamline'
p614
I431
sS'time-limited'
p615
I433
sS'boosting'
p616
I434
sS'Minpeco'
p617
I435
sS'estimate'
p618
I437
sS'Lecheria'
p619
I438
sS'Frankfurt'
p620
I439
sS'1.8415'
p621
I440
sS'Nixon'
p622
I441
sS'delight'
p623
I442
sS'enormous'
p624
I443
sS'won'
p625
I4203
sS'Monday'
p626
I1664
sS'created'
p627
I445
sS'September'
p628
I446
sS'National'
p629
I447
sS'Mingo'
p630
I448
sS'days'
p631
I449
sS'show'
p632
I2886
sS'pence'
p633
I451
sS'AMERICAN'
p634
I452
sS'levels'
p635
I3294
sS'oppose'
p636
I454
sS'smokers'
p637
I455
sS'Paris'
p638
I4221
sS'1970s'
p639
I456
sS'moving'
p640
I2190
sS'caught'
p641
I1665
sS'user'
p642
I3296
sS'enjoy'
p643
I461
sS'U.K.'
p644
I462
sS'Mediobanca'
p645
I463
sS'cup'
p646
I4544
sS'features'
p647
I465
sS'economists'
p648
I466
sS'researcher'
p649
I467
sS'Ackerman'
p650
I468
sS'primary'
p651
I469
sS'executions'
p652
I470
sS'clear'
p653
I2991
sS'featured'
p654
I471
sS'relations'
p655
I4096
sS'another'
p656
I473
sS'comic'
p657
I475
sS'ditch'
p658
I3512
sS'electronic'
p659
I477
sS'Azoff'
p660
I478
sS'illustrate'
p661
I480
sS'anyone'
p662
I1670
sS'rated'
p663
I483
sS'service'
p664
I484
sS'attach'
p665
I4099
sS'lawsuits'
p666
I487
sS'takeovers'
p667
I488
sS'free-lance'
p668
I1672
sS'approximately'
p669
I490
sS'heights'
p670
I491
sS'needed'
p671
I492
sS'Devario'
p672
I494
sS'master'
p673
I495
sS'listed'
p674
I496
sS'draft'
p675
I1674
sS'Mesa'
p676
I498
sS'bitter'
p677
I499
sS'ranging'
p678
I500
sS'Alexander'
p679
I501
sS'chanted'
p680
I502
sS'urban'
p681
I503
sS'190-point'
p682
I504
sS'B'
p683
I505
sS'luxury'
p684
I3363
sS'collapse'
p685
I506
sS'tool'
p686
I508
sS'diversified'
p687
I509
sS'serve'
p688
I510
sS'took'
p689
I511
sS'rejected'
p690
I512
sS'kiddies'
p691
I3500
sS'western'
p692
I516
sS'somewhat'
p693
I517
sS'practiced'
p694
I519
sS'Communications'
p695
I4499
sS'begins'
p696
I521
sS'distance'
p697
I522
sS'composer'
p698
I3785
sS'Code'
p699
I523
sS'target'
p700
I524
sS'showed'
p701
I525
sS'Coda'
p702
I526
sS'programs'
p703
I528
sS'tree'
p704
I529
sS'likely'
p705
I530
sS'nations'
p706
I531
sS'project'
p707
I532
sS'matter'
p708
I533
sS'Unix'
p709
I534
sS'classes'
p710
I535
sS'silly'
p711
I536
sS'Sea'
p712
I537
sS'budget'
p713
I3236
sS'Sen'
p714
I539
sS'feeling'
p715
I540
sS'powers'
p716
I541
sS'acquisition'
p717
I542
sS'interests'
p718
I4106
sS'Vice'
p719
I4762
sS'fashion'
p720
I544
sS'sees'
p721
I545
sS'steelmaker'
p722
I546
sS'willingness'
p723
I547
sS'Chicago'
p724
I548
sS'ran'
p725
I549
sS'HealthVest'
p726
I551
sS'mind'
p727
I552
sS'mine'
p728
I553
sS'500,000'
p729
I554
sS'spent'
p730
I3309
sS'talking'
p731
I556
sS'seed'
p732
I557
sS'manner'
p733
I559
sS'Instead'
p734
I561
sS'seem'
p735
I562
sS'Haussmann'
p736
I563
sS'seek'
p737
I564
sS'relatively'
p738
I3280
sS'Pravda'
p739
I566
sS'forced'
p740
I567
sS'strength'
p741
I568
sS'1969'
p742
I1279
sS'responsible'
p743
I571
sS'floating-rate'
p744
I572
sS'isolated'
p745
I573
sS'thorough'
p746
I574
sS'indexes'
p747
I575
sS'sound'
p748
I2441
sS'subjects'
p749
I576
sS'Minister'
p750
I577
sS'doors'
p751
I390
sS'brains'
p752
I1688
sS'pension'
p753
I4805
sS'dragged'
p754
I3003
sS'Stevenson'
p755
I580
sS'Bank'
p756
I581
sS'unsecured'
p757
I582
sS'concedes'
p758
I583
sS'acquire'
p759
I4113
sS'transactions'
p760
I585
sS'Ogden'
p761
I586
sS'pretty'
p762
I4079
sS'Arizona'
p763
I588
sS'Mead'
p764
I589
sS'letter'
p765
I590
sS'8.05'
p766
I2464
sS'phase'
p767
I592
sS'Aug.'
p768
I4573
sS'Alabama'
p769
I3485
sS'Coca-Cola'
p770
I595
sS'Bond'
p771
I597
sS'stock-price'
p772
I598
sS'singer'
p773
I599
sS'antitrust'
p774
I602
sS'professor'
p775
I604
sS'camp'
p776
I605
sS'flow'
p777
I606
sS'newcomers'
p778
I607
sS'treaty'
p779
I608
sS'competitors'
p780
I609
sS'points'
p781
I610
sS'sources'
p782
I4524
sS'principle'
p783
I611
sS'Giovanni'
p784
I2499
sS'Institutes'
p785
I613
sS'voting'
p786
I614
sS'consumer'
p787
I615
sS'notion'
p788
I616
sS'came'
p789
I617
sS'reserve'
p790
I618
sS'saying'
p791
I619
sS'reactor'
p792
I621
sS'O.'
p793
I3322
sS'reductions'
p794
I629
sS'meetings'
p795
I625
sS'labels'
p796
I1134
sS'ending'
p797
I627
sS'showing'
p798
I4572
sS'liberty'
p799
I628
sS'participate'
p800
I630
sS'Anne'
p801
I631
sS'Congressional'
p802
I632
sS'European'
p803
I633
sS'Dec.'
p804
I634
sS'20-year'
p805
I1561
sS'just'
p806
I636
sS'Unocal'
p807
I637
sS'representing'
p808
I1696
sS'Republicans'
p809
I640
sS'Free'
p810
I641
sS'interbank'
p811
I1697
sS'Records'
p812
I643
sS'theme'
p813
I644
sS'Inc.'
p814
I1698
sS'pursuing'
p815
I646
sS'announce'
p816
I647
sS'adequate'
p817
I648
sS'rice'
p818
I649
sS'jailed'
p819
I650
sS'smaller'
p820
I4090
sS'wearing'
p821
I651
sS'plate'
p822
I652
sS'Spielvogel'
p823
I3226
sS'10'
p824
I1700
sS'de'
p825
I655
sS'stop'
p826
I656
sS'television'
p827
I1701
sS'preferred'
p828
I658
sS'yielded'
p829
I659
sS'criticized'
p830
I660
sS'Ogilvy'
p831
I2504
sS'Bognato'
p832
I4127
sS'equity-purchase'
p833
I663
sS'altogether'
p834
I664
sS'report'
p835
I665
sS'Organization'
p836
I666
sS'vividly'
p837
I667
sS'Labor'
p838
I3330
sS'Soviet'
p839
I669
sS'volatility'
p840
I670
sS'Senators'
p841
I671
sS'runs'
p842
I672
sS'spots'
p843
I4688
sS'bar'
p844
I673
sS'Moore'
p845
I674
sS'Armstrong'
p846
I675
sS'covering'
p847
I676
sS'ever'
p848
I677
sS'Washington'
p849
I678
sS'twice'
p850
I419
sS'Clinic'
p851
I680
sS'three-year'
p852
I681
sS'rival'
p853
I1708
sS'release'
p854
I684
sS'told'
p855
I685
sS'Clearly'
p856
I686
sS'mergers'
p857
I687
sS'Clifford'
p858
I1088
sS'respond'
p859
I689
sS'mandatory'
p860
I690
sS'District'
p861
I691
sS'Gorbachev'
p862
I692
sS'contract-drilling'
p863
I693
sS'observed'
p864
I694
sS'decided'
p865
I695
sS'projections'
p866
I696
sS'cattle'
p867
I697
sS'discussions'
p868
I698
sS'John'
p869
I699
sS'half-an-hour'
p870
I700
sS'best'
p871
I701
sS'subject'
p872
I702
sS'sedans'
p873
I703
sS'said'
p874
I704
sS'capacity'
p875
I705
sS'lots'
p876
I706
sS'away'
p877
I707
sS'141.90'
p878
I708
sS'patients'
p879
I905
sS'unable'
p880
I711
sS'cooperation'
p881
I713
sS'Prices'
p882
I714
sS'drawn'
p883
I715
sS'Technologies'
p884
I716
sS'tolerance'
p885
I717
sS'yields'
p886
I3394
sS'preserve'
p887
I718
sS'wage'
p888
I371
sS'we'
p889
I720
sS'never'
p890
I721
sS'terms'
p891
I722
sS'extend'
p892
I723
sS'nature'
p893
I724
sS'wo'
p894
I725
sS'Financial'
p895
I1261
sS'however'
p896
I727
sS'33,000'
p897
I729
sS'U.S.-Japan'
p898
I2298
sS'drew'
p899
I731
sS'clues'
p900
I732
sS'news'
p901
I733
sS'convertible'
p902
I734
sS'debt'
p903
I735
sS'improve'
p904
I736
sS'suggested'
p905
I737
sS'received'
p906
I738
sS'essentially'
p907
I739
sS'providing'
p908
I4138
sS'accused'
p909
I4682
sS'met'
p910
I741
sS'resistant'
p911
I742
sS'country'
p912
I743
sS'readers'
p913
I3344
sS'pollinated'
p914
I745
sS'tracks'
p915
I2521
sS'against'
p916
I747
sS'players'
p917
I4458
sS'merging'
p918
I750
sS'109'
p919
I751
sS'planned'
p920
I752
sS'faces'
p921
I753
sS'Leche'
p922
I754
sS'requests'
p923
I755
sS'argue'
p924
I756
sS'Several'
p925
I3882
sS'asked'
p926
I757
sS'Feb.'
p927
I758
sS'N.M.'
p928
I3307
sS'tone'
p929
I759
sS'1.5'
p930
I1360
sS'appeared'
p931
I761
sS'Gas'
p932
I762
sS'irresponsible'
p933
I763
sS'excess'
p934
I2524
sS'COMMERCIAL'
p935
I764
sS'represented'
p936
I2123
sS'tons'
p937
I767
sS'massive'
p938
I1629
sS'initiative'
p939
I768
sS'Board'
p940
I769
sS'tony'
p941
I770
sS'250'
p942
I771
sS'251'
p943
I772
sS'telecommunications'
p944
I773
sS'insiders'
p945
I3224
sS'conference'
p946
I4629
sS'strong'
p947
I2527
sS'jobless'
p948
I422
sS'asks'
p949
I778
sS'basis'
p950
I779
sS'union'
p951
I780
sS'Marcos'
p952
I1726
sS'Southern'
p953
I782
sS'three'
p954
I783
sS'tiny'
p955
I784
sg24
I785
sS'Early'
p956
I786
sS'commission'
p957
I787
sS'beer'
p958
I788
sS'much'
p959
I789
sS'interest'
p960
I790
sS'basic'
p961
I791
sS'privilege'
p962
I792
sS'parents'
p963
I3354
sS'entered'
p964
I794
sS'dozens'
p965
I795
sS'duties'
p966
I796
sS'threw'
p967
I797
sS'face-to-face'
p968
I3807
sS'life'
p969
I798
sS'AFL-CIO'
p970
I800
sS'deeper'
p971
I801
sS'Tokyo'
p972
I802
sS'Pennsylvania'
p973
I803
sS'<null>'
p974
I804
sS'Poland'
p975
I805
sS'Jan.'
p976
I3158
sS'CD'
p977
I806
sS'Donovan'
p978
I807
sS'lift'
p979
I808
sS'personally'
p980
I810
sS'catch'
p981
I811
sS'NCNB'
p982
I812
sS'worked'
p983
I813
sS'Trans'
p984
I814
sS'Secretary'
p985
I815
sS'applied'
p986
I816
sS'unpopular'
p987
I817
sS'save'
p988
I818
sS'Co'
p989
I819
sS'publicly'
p990
I821
sS'economies'
p991
I822
sS'air'
p992
I823
sS'employ'
p993
I824
sS'auction'
p994
I825
sS'near'
p995
I826
sS'Market'
p996
I3245
sS'seeds'
p997
I4654
sS'aid'
p998
I827
sS'property'
p999
I828
sS'elaborate'
p1000
I829
sS'launched'
p1001
I830
sS'pastry'
p1002
I1735
sS'seven'
p1003
I832
sS'changed'
p1004
I1198
sS'MCI'
p1005
I4202
sS'Mitsui'
p1006
I834
sS'played'
p1007
I836
sS'is'
p1008
I838
sS'FHA'
p1009
I840
sS'it'
p1010
I841
sS'holdings'
p1011
I4652
sS'CVN'
p1012
I842
sS'player'
p1013
I843
sS'Bush'
p1014
I844
sS'tissue'
p1015
I845
sS'upscale'
p1016
I846
sS'experience'
p1017
I2542
sS'world-wide'
p1018
I848
sS'Capital'
p1019
I849
sS'exile'
p1020
I850
sS'victims'
p1021
I3366
sS'confident'
p1022
I4060
sS'if'
p1023
I853
sS'grown'
p1024
I854
sS'confirmed'
p1025
I855
sS'bottles'
p1026
I856
sS'things'
p1027
I857
sS'make'
p1028
I858
sS'leveraged'
p1029
I4617
sS'amount'
p1030
I2545
sS'Kremlin'
p1031
I860
sS'Ill.'
p1032
I861
sS'feuding'
p1033
I862
sS'split'
p1034
I864
sS'Of'
p1035
I3370
sS'President'
p1036
I866
sS'sidelines'
p1037
I322
sS'couple'
p1038
I3371
sS'analysts'
p1039
I869
sS'fairly'
p1040
I871
sS'satellite'
p1041
I872
sS'Institute'
p1042
I873
sS'Maybe'
p1043
I874
sS'social'
p1044
I2548
sS'middle-aged'
p1045
I876
sS'hand'
p1046
I877
sS'Angeles'
p1047
I878
sS'day'
p1048
I4540
sS'Morris'
p1049
I879
sS'Monsanto'
p1050
I2201
sS'ownership'
p1051
I883
sS'Home'
p1052
I884
sS'insisted'
p1053
I885
sS'opportunity'
p1054
I886
sS'blamed'
p1055
I887
sS'tune'
p1056
I888
sS'midsized'
p1057
I889
sS'butter'
p1058
I890
sS'kept'
p1059
I891
sS'RJR'
p1060
I892
sS'1978'
p1061
I894
sS'she'
p1062
I4290
sS'1976'
p1063
I896
sS'1975'
p1064
I897
sS'supervisors'
p1065
I952
sS'1971'
p1066
I899
sS'urged'
p1067
I4650
sS'academic'
p1068
I900
sS'savings'
p1069
I901
sS'materials'
p1070
I902
sS'greatest'
p1071
I904
sS'Batman'
p1072
I4169
sS'claims'
p1073
I907
sS'the'
p1074
I908
sS'800'
p1075
I909
sS'corporate'
p1076
I910
sS'investments'
p1077
I911
sS'left'
p1078
I912
sS'Pete'
p1079
I913
sS'Swank'
p1080
I914
sS'quoted'
p1081
I915
sS'yen'
p1082
I916
sS'Cambodia'
p1083
I917
sS'aside'
p1084
I1748
sS'assigned'
p1085
I919
sS'proposes'
p1086
I920
sS'completed'
p1087
I4112
sS'Management'
p1088
I3401
sS'thanks'
p1089
I921
sS'human'
p1090
I922
sS'Day'
p1091
I2618
sS'houses'
p1092
I2824
sS'yet'
p1093
I925
sS'succeeding'
p1094
I926
sS'previous'
p1095
I927
sS'adding'
p1096
I929
sS'buyers'
p1097
I930
sS'designers'
p1098
I931
sS'capacity-expansion'
p1099
I2558
sS'ease'
p1100
I934
sS'had'
p1101
I935
sS'emphasis'
p1102
I1751
sS'Leonard'
p1103
I937
sS'spread'
p1104
I938
sS'board'
p1105
I939
sS'easy'
p1106
I940
sS'News'
p1107
I941
sS'Philip'
p1108
I942
sS'has'
p1109
I943
sS'gave'
p1110
I944
sS'Building'
p1111
I945
sS'Santa'
p1112
I4177
sS'freedom'
p1113
I4649
sS'James'
p1114
I948
sS'posed'
p1115
I949
sS'possible'
p1116
I950
sS'possibly'
p1117
I951
sS'cultural'
p1118
I898
sS'buy-out'
p1119
I953
sS'Chrysler'
p1120
I955
sS'wanting'
p1121
I956
sS'judge'
p1122
I957
sS'firmed'
p1123
I958
sS'highly'
p1124
I959
sS'retreat'
p1125
I961
sS'apart'
p1126
I962
sS'desire'
p1127
I963
sS'59'
p1128
I966
sS'58'
p1129
I967
sS'gift'
p1130
I968
sS'visible'
p1131
I969
sS'55'
p1132
I970
sS'54'
p1133
I971
sS'Shevardnadze'
p1134
I972
sS'51'
p1135
I973
sS'unnecessary'
p1136
I974
sS'53'
p1137
I975
sS'securities'
p1138
I976
sS'private'
p1139
I3781
sS'steps'
p1140
I978
sS'flaps'
p1141
I979
sS'Jr.'
p1142
I4760
sS'Steven'
p1143
I980
sS'Lawrence'
p1144
I4685
sS'security'
p1145
I982
sS'Agnellis'
p1146
I983
sS'Pentagon'
p1147
I984
sS'Prince'
p1148
I985
sS'S.'
p1149
I2564
sS'beneficial'
p1150
I988
sS'right'
p1151
I989
sS'old'
p1152
I990
sS'crowd'
p1153
I991
sS'people'
p1154
I992
sS'successfully'
p1155
I994
sS'Sunbird'
p1156
I995
sS'System'
p1157
I996
sS'elderly'
p1158
I997
sS'50'
p1159
I998
sS'consultants'
p1160
I999
sS'Much'
p1161
I1000
sS'election'
p1162
I1001
sS'unless'
p1163
I4183
sS'short-term'
p1164
I1002
sS'W.Va'
p1165
I1003
sS'consensus'
p1166
I3391
sS'Nixdorf'
p1167
I1005
sS'for'
p1168
I1006
sS'stronger'
p1169
I4206
sS'consecutive'
p1170
I4419
sS'Nobody'
p1171
I1008
sS'reinvest'
p1172
I1009
sS'savings-type'
p1173
I1010
sS'creative'
p1174
I1011
sS'everything'
p1175
I1012
sS'asking'
p1176
I1238
sS'Let'
p1177
I1014
sS'motor-control'
p1178
I1015
sS'denied'
p1179
I1016
sS'offices'
p1180
I1915
sS'Accepted'
p1181
I1018
sS'Stoll'
p1182
I1020
sS'participation'
p1183
I1019
sS'He'
p1184
I1281
sS'core'
p1185
I1021
sS'School'
p1186
I1022
sS'expires'
p1187
I4188
sS'bold'
p1188
I1024
sS'marketing'
p1189
I1025
sS'corn'
p1190
I1320
sS'predicting'
p1191
I1323
sS'conventional'
p1192
I2570
sS'discount'
p1193
I1029
sS'outlays'
p1194
I1351
sS'Deposit'
p1195
I1359
sS'packages'
p1196
I4391
sS'losing'
p1197
I1033
sS'brokerage'
p1198
I1034
sS'post'
p1199
I1035
sS'manufacturing'
p1200
I1036
sS'properties'
p1201
I1037
sS'First'
p1202
I1038
sS'dollars'
p1203
I1040
sS'months'
p1204
I1041
sS'rolled'
p1205
I4325
sS'magazine'
p1206
I1042
sS'misleading'
p1207
I1043
sS'plus'
p1208
I1044
sS'banker'
p1209
I1045
sS'AG'
p1210
I3589
sS'efforts'
p1211
I1047
sS'Gomez'
p1212
I1048
sS'slightly'
p1213
I1049
sS'objectives'
p1214
I2578
sS'automatically'
p1215
I1051
sS'Donaldson'
p1216
I1052
sS'consulting'
p1217
I1053
sS'Express'
p1218
I1054
sS'statements'
p1219
I1055
sS'publishing'
p1220
I3188
sS'formerly'
p1221
I3762
sS'facility'
p1222
I1058
sS'civil'
p1223
I1059
sS'pays'
p1224
I1060
sS'attorney'
p1225
I2919
sS'son'
p1226
I1062
sS'administer'
p1227
I1063
sS'device'
p1228
I4194
sS'accomplishments'
p1229
I1065
sS'magazines'
p1230
I1066
sS'capped'
p1231
I1067
sS'Korean'
p1232
I1068
sS'defendants'
p1233
I1069
sS'pollen-inhibiting'
p1234
I1070
sS'particularly'
p1235
I3645
sS'branch'
p1236
I4772
sS'Cranston'
p1237
I1071
sS'deal'
p1238
I1073
sS'support'
p1239
I1074
sS'flying'
p1240
I1075
sS'legislation'
p1241
I1076
sS'cosmetics'
p1242
I4545
sS'one-time'
p1243
I1077
sS'fight'
p1244
I1078
sS'fought'
p1245
I1079
sS'authorized'
p1246
I1080
sS'wrongdoing'
p1247
I1081
sS'resulted'
p1248
I1082
sS'call'
p1249
I1083
sS'was'
p1250
I1084
sS'war'
p1251
I1085
sS'launching'
p1252
I1086
sS'interest-rate'
p1253
I1087
sS'head'
p1254
I1089
sS'economics'
p1255
I833
sS'slip'
p1256
I3878
sS'form'
p1257
I1091
sS'offer'
p1258
I1092
sS'Assume'
p1259
I1093
sS'January'
p1260
I1754
sS'becoming'
p1261
I1095
sS'6'
p1262
I2584
sS'removes'
p1263
I1097
sS'landing'
p1264
I1098
sS'somehow'
p1265
I1099
sS'payable'
p1266
I30
sS'heat'
p1267
I1101
sS'hear'
p1268
I1102
sS'syndicate'
p1269
I1103
sS'insider-trading'
p1270
I1104
sS'true'
p1271
I1106
sS'analyst'
p1272
I1107
sS'reset'
p1273
I1109
sS'Seagram'
p1274
I3796
sS'counsel'
p1275
I1110
sS'high-quality'
p1276
I1111
sS'tack'
p1277
I4064
sS'Commission'
p1278
I1114
sS'spun'
p1279
I4256
sS'B.'
p1280
I4578
sS'attached'
p1281
I1116
sS'maximum'
p1282
I1117
sS'devices'
p1283
I1118
sS'tell'
p1284
I1119
sS'County'
p1285
I1120
sS'Engineering'
p1286
I1121
sS'economic'
p1287
I3410
sS'S.p'
p1288
I1123
sS'}'
p1289
I4214
sS'unusually'
p1290
I1125
sS'reform'
p1291
I4318
sS'stages'
p1292
I1127
sS'enthusiastic'
p1293
I4205
sS'refillable'
p1294
I1128
sS'<unk>'
p1295
I1129
sS'150'
p1296
I1130
sS'private-sector'
p1297
I1131
sS'proved'
p1298
I1133
sS'156'
p1299
I1135
sS'implications'
p1300
I1061
sS'Hudson'
p1301
I1138
sS'one-third'
p1302
I1139
sS'covers'
p1303
I1140
sS'evidence'
p1304
I1141
sS"''"
p1305
I1142
sS'mostly'
p1306
I1686
sS'promised'
p1307
I1144
sS'request'
p1308
I1145
sS'Wathen'
p1309
I1146
sS'face'
p1310
I4208
sS'dealer'
p1311
I1147
sS'negotiations'
p1312
I1148
sS'Intel'
p1313
I2048
sS'Tashi'
p1314
I1150
sS'1,000'
p1315
I4209
sS'weakened'
p1316
I1152
sS'floor'
p1317
I1153
sS'stake'
p1318
I1155
sS'generally'
p1319
I1156
sS'topped'
p1320
I1158
sS'negotiators'
p1321
I1159
sS'composite'
p1322
I1160
sS'interested'
p1323
I1162
sS'role'
p1324
I1163
sS'holding'
p1325
I1164
sS"M'Bow"
p1326
I1165
sS'test'
p1327
I1166
sS'developers'
p1328
I1167
sS'roll'
p1329
I1168
sS'realize'
p1330
I3975
sS'picture'
p1331
I1169
sS'EST'
p1332
I1171
sS"'s"
p1333
I1172
sS'get-together'
p1334
I1173
sS'models'
p1335
I1174
sS'why'
p1336
I1175
sS'Later'
p1337
I1176
sS'Wilmington'
p1338
I1177
sS'deficit-reduction'
p1339
I4788
sS'Trial'
p1340
I1178
sS"'d"
p1341
I1179
sS'invested'
p1342
I1180
sS'rising'
p1343
I3963
sS'scores'
p1344
I1182
sS'rolling'
p1345
I1183
sS"'m"
p1346
I1184
sS'Mass.'
p1347
I1185
sS'firms'
p1348
I3727
sS'died'
p1349
I1186
sS'Lee'
p1350
I1187
sS'billion'
p1351
I1188
sS'younger'
p1352
I1189
sS'reorganization'
p1353
I1190
sS'longer'
p1354
I1191
sS'Estate'
p1355
I1192
sS'excuse'
p1356
I158
sS'assume'
p1357
I1194
sS'T.'
p1358
I3596
sS'proposed'
p1359
I1202
sS'Charles'
p1360
I1197
sS'affidavit'
p1361
I1199
sS'together'
p1362
I1200
sS'liquidity'
p1363
I1797
sS'fastener'
p1364
I1203
sS'warm'
p1365
I1204
sS'time'
p1366
I1205
sS'push'
p1367
I1206
sS'serious'
p1368
I2171
sS'debate'
p1369
I4114
sS'Moscow'
p1370
I3422
sS'profits'
p1371
I1209
sS'overdue'
p1372
I1210
sS'detective'
p1373
I1113
sS'Mayor'
p1374
I4658
sS'concept'
p1375
I1212
sS'managed'
p1376
I1213
sS'chain'
p1377
I1214
sS'Indians'
p1378
I1216
sS'alternatives'
p1379
I1217
sS'focus'
p1380
I1218
sS'deliveries'
p1381
I1219
sS'leads'
p1382
I1220
sS'manager'
p1383
I1221
sS'mile'
p1384
I1222
sS'battle'
p1385
I1224
sS'involved'
p1386
I3753
sS'milk'
p1387
I1225
sS'Today'
p1388
I1226
sS'row'
p1389
I1227
sS'certainly'
p1390
I1228
sS'hold'
p1391
I1229
sS'Columbia'
p1392
I1230
sS'757-200s'
p1393
I1231
sS'balloons'
p1394
I4551
sS'religion'
p1395
I3426
sS'technique'
p1396
I514
sS'Ridley'
p1397
I1234
sS'environment'
p1398
I1235
sS'company'
p1399
I2598
sS'finally'
p1400
I1237
sS'compensate'
p1401
I2581
sS'Lighting'
p1402
I1239
sS'marks'
p1403
I1241
sS'Atlanta'
p1404
I1242
sS'must'
p1405
I1243
sS'swap'
p1406
I1244
sS'eliminate'
p1407
I3429
sS'1991'
p1408
I206
sS'supported'
p1409
I4223
sS'string'
p1410
I1249
sS'prepaid'
p1411
I1250
sS'revamping'
p1412
I1805
sS'blase'
p1413
I1252
sS'confidence'
p1414
I3792
sS'consolidation'
p1415
I1253
sS'choice'
p1416
I1254
sS'liability'
p1417
I1255
sS'automobiles'
p1418
I1256
sS'tanks'
p1419
I1258
sS'advised'
p1420
I1259
sS'10-year'
p1421
I1260
sS'word'
p1422
I210
sS'airing'
p1423
I1262
sS'blast'
p1424
I1263
sS'Where'
p1425
I2723
sS'minute'
p1426
I1266
sS'governments'
p1427
I1267
sS'Just'
p1428
I1269
sS'level'
p1429
I1270
sS'did'
p1430
I1271
sS'Ltd'
p1431
I3174
sS'Tax'
p1432
I1272
sS'Intelogic'
p1433
I1273
sS'magnet'
p1434
I527
sS'third-largest'
p1435
I1275
sS'progress'
p1436
I4331
sS'team'
p1437
I1277
sS'quick'
p1438
I550
sS'speculation'
p1439
I1280
sS'George'
p1440
I1282
sS'Systems'
p1441
I1811
sS'Reich'
p1442
I3918
sS'prevent'
p1443
I1284
sS'revolution'
p1444
I1285
sS'says'
p1445
I2869
sS'findings'
p1446
I1287
sS'tougher'
p1447
I1288
sS'trend'
p1448
I1289
sS'plunged'
p1449
I216
sS'injunction'
p1450
I2936
sS'sign'
p1451
I1292
sS'utility'
p1452
I4677
sS'cost'
p1453
I1294
sS'Northwest'
p1454
I1295
sS'takeoff'
p1455
I1296
sS'patient'
p1456
I863
sS'Weyerhaeuser'
p1457
I1298
sS'targets'
p1458
I1299
sS'substitute'
p1459
I1300
sS'drinks'
p1460
I1301
sS'majors'
p1461
I1302
sS'Bert'
p1462
I1303
sS'Newsom'
p1463
I1304
sS'adds'
p1464
I1305
sS'appear'
p1465
I1306
sS'economist'
p1466
I4229
sS'shares'
p1467
I1309
sS'Ford'
p1468
I1310
sS'current'
p1469
I1311
sS'goes'
p1470
I1314
sS'During'
p1471
I1316
sS'falling'
p1472
I1317
sS'appeal'
p1473
I1318
sS'boost'
p1474
I1319
sS'collateral'
p1475
I1322
sS'Bill'
p1476
I3437
sS'jury'
p1477
I1324
sS'partners'
p1478
I4234
sS'genes'
p1479
I1327
sS'Bids'
p1480
I1328
sS'Aga'
p1481
I1329
sS'exceptions'
p1482
I1330
sS'slow'
p1483
I1819
sS'baseball'
p1484
I1332
sS'groups'
p1485
I1333
sS'English'
p1486
I1334
sS'alone'
p1487
I1335
sS'based'
p1488
I4237
sS'along'
p1489
I1337
sS'refused'
p1490
I2404
sS'My'
p1491
I1339
sS'appears'
p1492
I1340
sS'change'
p1493
I1341
sS'Warner'
p1494
I1342
sS'passengers'
p1495
I1343
sS'Dean'
p1496
I1344
sS'cuckoo'
p1497
I1346
sS'restrictive'
p1498
I3442
sS'brilliant'
p1499
I1348
sS'Meanwhile'
p1500
I4238
sS'guilty'
p1501
I1350
sS'restructuring'
p1502
I1030
sS'trial'
p1503
I1352
sS'Associates'
p1504
I1353
sS'suggestion'
p1505
I1354
sS'usually'
p1506
I1355
sS'history'
p1507
I2627
sS'studies'
p1508
I1357
sS'Maine'
p1509
I1358
sS'confrontation'
p1510
I1032
sS'Canter'
p1511
I3287
sS'tasks'
p1512
I1361
sS'love'
p1513
I1362
sS'Justice'
p1514
I1364
sS'lending'
p1515
I1365
sS'Pennzoil'
p1516
I3445
sS'prefer'
p1517
I1366
sS'Brissette'
p1518
I1368
sS'licensing'
p1519
I1369
sS'fake'
p1520
I1370
sS'rarely'
p1521
I1372
sS'pitchers'
p1522
I3446
sS'market'
p1523
I1375
sS'everybody'
p1524
I1376
sS'Greenery'
p1525
I1377
sS'Australia'
p1526
I1378
sS'spouses'
p1527
I1115
sS'working'
p1528
I1380
sS'prove'
p1529
I1381
sS'wicker'
p1530
I1382
sS'give'
p1531
I1383
sS'visit'
p1532
I1384
sS'third-quarter'
p1533
I1385
sS'by'
p1534
I3448
sS'insider'
p1535
I1388
sS'2645.08'
p1536
I1389
sS'jam'
p1537
I4247
sS'opposed'
p1538
I1391
sS'memory'
p1539
I1393
sS'scope'
p1540
I1394
sS'Those'
p1541
I1396
sS'``'
p1542
I1398
sS'October'
p1543
I1399
sS'continue'
p1544
I3393
sS'club'
p1545
I1400
sS'minimum-wage'
p1546
I1401
sS'Mount'
p1547
I1402
sS'Public'
p1548
I4230
sS'refrain'
p1549
I1404
sS'clue'
p1550
I1405
sS'Barr'
p1551
I3451
sS'rigid'
p1552
I1408
sS'Time'
p1553
I3637
sS'cases'
p1554
I1411
sS'effort'
p1555
I1413
sS'behalf'
p1556
I1414
sS'fly'
p1557
I1415
sS'involve'
p1558
I1233
sS'valued'
p1559
I1417
sS'currency'
p1560
I1419
sS'German'
p1561
I1420
sS'thousands'
p1562
I254
sS'originally'
p1563
I1422
sS'cap'
p1564
I1423
sS'genetic'
p1565
I4397
sS'Kume'
p1566
I2637
sS'Pacific'
p1567
I1425
sS'believes'
p1568
I1426
sS'printing'
p1569
I1427
sS'values'
p1570
I1428
sS'can'
p1571
I1429
sS'believed'
p1572
I1430
sS'Our'
p1573
I1431
sS'newspapers'
p1574
I1432
sS'most'
p1575
I3454
sS'spy'
p1576
I1433
sS'want'
p1577
I1434
sS'figure'
p1578
I1435
sS'Federal'
p1579
I1436
sS'expanding'
p1580
I1437
sS'chip'
p1581
I1438
sS'restaurants'
p1582
I4066
sS'topic'
p1583
I1440
sS'spending'
p1584
I3490
sS'critic'
p1585
I1441
sS'performed'
p1586
I1442
sS'allowed'
p1587
I1444
sS'occur'
p1588
I1445
sS'gimmickry'
p1589
I1446
sS'parliamentary'
p1590
I1447
sS'requirements'
p1591
I1449
sS'Dataproducts'
p1592
I1450
sS'discussion'
p1593
I507
sS'watching'
p1594
I1832
sS'write'
p1595
I1453
sS'actual'
p1596
I4646
sS'fourth'
p1597
I1456
sS'Louis'
p1598
I3000
sS'Including'
p1599
I1458
sS'subsidiaries'
p1600
I1459
sS'sworn'
p1601
I1460
sS'Why'
p1602
I1461
sS'five-year'
p1603
I1462
sS'!'
p1604
I2644
sS'product'
p1605
I1464
sS'145'
p1606
I981
sS'building'
p1607
I4700
sS'huge'
p1608
I2645
sS'may'
p1609
I90
sS'Average'
p1610
I1468
sS'sour'
p1611
I3723
sS'spot'
p1612
I1470
sS'membership'
p1613
I1471
sS'produce'
p1614
I1472
sS'designed'
p1615
I1473
sS'Lufkin'
p1616
I380
sS'date'
p1617
I1475
sS'such'
p1618
I1476
sS'truly'
p1619
I1844
sS'data'
p1620
I1478
sS'grow'
p1621
I1479
sS'man'
p1622
I1480
sS'Still'
p1623
I1481
sS'natural'
p1624
I1482
sS'remember'
p1625
I1483
sS'sectors'
p1626
I1484
sS'maybe'
p1627
I1486
sS'futures'
p1628
I1487
sS'borrowing'
p1629
I1488
sS'tale'
p1630
I1491
sS'subminimum'
p1631
I1492
sS'criminal'
p1632
I3957
sS'ones'
p1633
I4265
sS'so'
p1634
I1494
sS'basket'
p1635
I1495
sS'pollution'
p1636
I3467
sS'pulled'
p1637
I1497
sS'talk'
p1638
I1498
sS'exclusive'
p1639
I1499
sS'hoped'
p1640
I3516
sS'serving'
p1641
I1500
sS'Series'
p1642
I4135
sS'nerve'
p1643
I1502
sS'mainly'
p1644
I4336
sS'raised'
p1645
I1504
sS'years'
p1646
I1505
sS'stability'
p1647
I1506
sS'hiring'
p1648
I354
sS'Genetic'
p1649
I1508
sS'cuts'
p1650
I1509
sS'argued'
p1651
I1510
sS'managers'
p1652
I1511
sS'cold'
p1653
I1512
sS'still'
p1654
I1513
sS'stock-index'
p1655
I1514
sS'Shaw'
p1656
I3471
sS'Accord'
p1657
I1515
sS'overhaul'
p1658
I1516
sS'courthouse'
p1659
I1157
sS'interesting'
p1660
I1519
sS'Lehman'
p1661
I765
sS'troubles'
p1662
I1521
sS'repertoire'
p1663
I4798
sS'window'
p1664
I1522
sS'offers'
p1665
I1523
sS'listing'
p1666
I1524
sS'policy'
p1667
I1525
sS'mail'
p1668
I153
sS'troubled'
p1669
I1527
sS'decades'
p1670
I1528
sS'into'
p1671
I3473
sS'happened'
p1672
I1530
sS'TCMP'
p1673
I1532
sS'finance'
p1674
I1533
sS'thereby'
p1675
I1534
sS'views'
p1676
I1535
sS'impulses'
p1677
I1536
sS'100,000'
p1678
I1538
sS'sweetened'
p1679
I1539
sS'undisclosed'
p1680
I1540
sS'introduce'
p1681
I1541
sS'nation'
p1682
I1542
sS'records'
p1683
I1543
sS'Because'
p1684
I4278
sS'compelled'
p1685
I1544
sS'Kemp'
p1686
I1546
sS'not'
p1687
I1547
sS'R.'
p1688
I1548
sS'now'
p1689
I1549
sS'provision'
p1690
I1550
sS'discuss'
p1691
I1551
sS'nor'
p1692
I1264
sS'down'
p1693
I1553
sS'term'
p1694
I1554
sS'attorneys'
p1695
I1555
sS'name'
p1696
I1556
sS'Their'
p1697
I3478
sS'resignation'
p1698
I1558
sS'drop'
p1699
I1559
sS'imports'
p1700
I3202
sS'gain'
p1701
I4714
sS'Stanley'
p1702
I1562
sS'entirely'
p1703
I1563
sS'quarter'
p1704
I1564
sS'Milk'
p1705
I1566
sS'Bros.'
p1706
I1567
sS'A'
p1707
I1568
sS'weighted'
p1708
I1569
sS'significantly'
p1709
I218
sS'Holdings'
p1710
I1571
sS'Gonzalez'
p1711
I4218
sS'revised'
p1712
I1572
sS'plant'
p1713
I2663
sS'challenges'
p1714
I1574
sS'begun'
p1715
I1575
sS'year'
p1716
I1576
sS'worried'
p1717
I1861
sS'pills'
p1718
I1579
sS'Carolina'
p1719
I1580
sS'hacker'
p1720
I1581
sS'living'
p1721
I1582
sS'shown'
p1722
I1583
sS'accomplish'
p1723
I1584
sS'container'
p1724
I1585
sS'opened'
p1725
I1586
sS'bullish'
p1726
I1587
sS'space'
p1727
I1588
sS'profit'
p1728
I1589
sS'Michigan'
p1729
I1590
sS'factory'
p1730
I1592
sS'increase'
p1731
I21
sS'mess'
p1732
I1595
sS'seriously'
p1733
I1596
sS'bailout'
p1734
I31
sS'suggesting'
p1735
I1599
sS'EG&G'
p1736
I624
sS'correct'
p1737
I63
sS'shows'
p1738
I1603
sS'Commerce'
p1739
I1604
sS'earlier'
p1740
I1605
sS'allegation'
p1741
I4291
sS'Rights'
p1742
I101
sS'cars'
p1743
I1607
sS'million'
p1744
I1608
sS'possibility'
p1745
I1609
sS'economy'
p1746
I3994
sS'Castro'
p1747
I1611
sS'plea'
p1748
I1612
sS'repurchase'
p1749
I1614
sS'Security'
p1750
I167
sS'remainder'
p1751
I1616
sS'care'
p1752
I1617
sS'advance'
p1753
I1618
sS'Tiananmen'
p1754
I192
sS'Already'
p1755
I1620
sS'where'
p1756
I1866
sS'merger'
p1757
I3761
sS'vehemently'
p1758
I236
sS'replacement'
p1759
I4591
sS'motion'
p1760
I1625
sS'thing'
p1761
I2001
sS'fellow'
p1762
I4535
sS'plane'
p1763
I2673
sS'place'
p1764
I1628
sS'Brantford'
p1765
I1072
sS'invitation'
p1766
I1630
sS'routes'
p1767
I1631
sS'economic-forecasting'
p1768
I279
sS'promotion'
p1769
I1633
sS'Gnu-Emacs'
p1770
I1634
sS'discontinued'
p1771
I295
sS'frequent'
p1772
I1636
sS'first'
p1773
I1637
sS'Even'
p1774
I308
sS'Rated'
p1775
I317
sS'revenue'
p1776
I1642
sS'spoken'
p1777
I1643
sS'clause'
p1778
I1644
sS'There'
p1779
I1645
sS'Asia'
p1780
I1646
sS'yourself'
p1781
I357
sS'Graeme'
p1782
I1649
sS'soaring'
p1783
I1650
sS'Krebs'
p1784
I1651
sS'Backer'
p1785
I1448
sS'suspended'
p1786
I379
sS'carry'
p1787
I388
sS'corporations'
p1788
I1655
sS'array'
p1789
I395
sS'drove'
p1790
I1657
sS'open'
p1791
I1658
sS'tomorrow'
p1792
I1659
sS'millions'
p1793
I417
sS'city'
p1794
I1661
sS'Levy'
p1795
I425
sS'others'
p1796
I4800
sS'sheet'
p1797
I1663
sS'district'
p1798
I444
sS'J.P.'
p1799
I459
sS'structured'
p1800
I1666
sS'Commercial'
p1801
I1667
sS'1.50'
p1802
I3497
sS'Dow'
p1803
I2677
sS'stimulation'
p1804
I481
sS'indicate'
p1805
I1671
sS'returns'
p1806
I489
sS'2'
p1807
I1673
sS'SEC'
p1808
I497
sS'convention'
p1809
I1675
sS'Cult'
p1810
I1676
sS'Such'
p1811
I1677
sS'white'
p1812
I1678
sS'Data'
p1813
I187
sS'friend'
p1814
I1680
sS'editor'
p1815
I1681
sS'exploring'
p1816
I147
sS'mining'
p1817
I1683
sS'fraction'
p1818
I1685
sS'allegedly'
p1819
I569
sS'that'
p1820
I1687
sS'season'
p1821
I579
sS'Hispanic'
p1822
I1691
sS'criticize'
p1823
I2681
sS'hope'
p1824
I4254
sS'packet'
p1825
I4304
sS'specialists'
p1826
I1695
sS'clients'
p1827
I3845
sS'surged'
p1828
I639
sS'than'
p1829
I642
sS'specify'
p1830
I645
sS'11'
p1831
I1699
sS'wide'
p1832
I654
sS'13'
p1833
I657
sS'12'
p1834
I1702
sS'15'
p1835
I1703
sS'unfortunately'
p1836
I180
sS'17'
p1837
I1705
sS'16'
p1838
I1706
sS'19'
p1839
I679
sS'18'
p1840
I683
sS'require'
p1841
I1709
sS'diplomatic'
p1842
I1710
sS'transferred'
p1843
I1711
sS'spokeswoman'
p1844
I1712
sS'future'
p1845
I1713
sS'glossy'
p1846
I1714
sS'venture'
p1847
I1715
sS'were'
p1848
I726
sS'cards'
p1849
I1717
sS'Orkem'
p1850
I1718
sS'subcommittee'
p1851
I4309
sS'and'
p1852
I1720
sS'62.875'
p1853
I1721
sS'Kuehn'
p1854
I1722
sS'Court'
p1855
I1723
sS'armored'
p1856
I774
sS'investors'
p1857
I1725
sS'remained'
p1858
I781
sS'NATO'
p1859
I3805
sS'premier'
p1860
I1727
sS'turned'
p1861
I1728
sS'argument'
p1862
I1729
sS'headquarters'
p1863
I1730
sS'already'
p1864
I4274
sS'say'
p1865
I1732
sS'conspiracy'
p1866
I1733
sS'Inquiry'
p1867
I1734
sS'rent'
p1868
I831
sS'anger'
p1869
I1736
sS'DNA'
p1870
I1090
sS'sells'
p1871
I1737
sS'recover'
p1872
I1738
sS'saw'
p1873
I1739
sS'any'
p1874
I2966
sS'sat'
p1875
I1741
sS'Do'
p1876
I1742
sS'offering'
p1877
I1744
sS'fashionable'
p1878
I1745
sS'veteran'
p1879
I1746
sS'Murphy'
p1880
I1747
sS'ideas'
p1881
I918
sS'note'
p1882
I1749
sS'equipment'
p1883
I1750
sS'ideal'
p1884
I936
sS'potential'
p1885
I1752
sS'take'
p1886
I1753
sS'attempted'
p1887
I3290
sS'performance'
p1888
I895
sS'Leemans'
p1889
I1756
sS'Du'
p1890
I1757
sS'high-technology'
p1891
I1758
sS'registered'
p1892
I3513
sS'channel'
p1893
I1760
sS'200'
p1894
I1761
sS'begin'
p1895
I1762
sS'SUNY'
p1896
I1763
sS'multiple'
p1897
I1764
sS'opposite'
p1898
I1766
sS'track'
p1899
I1767
sS'price'
p1900
I1768
sS'enter'
p1901
I1769
sS'TV'
p1902
I3544
sS'paid'
p1903
I1770
sS'specialty'
p1904
I3515
sS'Separately'
p1905
I1771
sS'near-term'
p1906
I4378
sS'Gandhi'
p1907
I1772
sS'remarks'
p1908
I1773
sS'cleared'
p1909
I1775
sS'inserted'
p1910
I1776
sS'GOP'
p1911
I1689
sS'involving'
p1912
I3462
sS'D.'
p1913
I1778
sS'Trust'
p1914
I74
sS'especially'
p1915
I1780
sS'surprising'
p1916
I1781
sS'failure'
p1917
I1782
sS'considered'
p1918
I1783
sS'average'
p1919
I1785
sS'later'
p1920
I1132
sS'Chez'
p1921
I1137
sS'hungry'
p1922
I1312
sS'playing'
p1923
I2695
sS'federal'
p1924
I1889
sS'stock-market'
p1925
I3353
sS'refining'
p1926
I1791
sS'jumped'
p1927
I1890
sS'Accounting'
p1928
I239
sS'senior'
p1929
I1794
sS'50.875'
p1930
I2696
sS'typically'
p1931
I1796
sS'filing'
p1932
I1201
sS'laws'
p1933
I1798
sS'shop'
p1934
I1211
sS'rating'
p1935
I1800
sS'Northeast'
p1936
I1801
sS'surplus'
p1937
I1802
sS'3.75'
p1938
I1803
sS'heredity'
p1939
I4382
sS'allegations'
p1940
I1251
sS'contemporary'
p1941
I1806
sS'Research'
p1942
I1807
sS'discovered'
p1943
I1808
sS'Switzerland'
p1944
I3524
sS'steelmakers'
p1945
I1283
sS'Stephen'
p1946
I1812
sS'Bundesbank'
p1947
I1813
sS'aggressive'
p1948
I1814
sS'label'
p1949
I1893
sS'ground'
p1950
I1816
sS'Mikhail'
p1951
I1894
sS'We'
p1952
I1818
sS'upgrade'
p1953
I1331
sS'Worse'
p1954
I1820
sS'Banxquote'
p1955
I2640
sS'title'
p1956
I1821
sS'Kansas'
p1957
I1823
sS'Berlin'
p1958
I1824
sS'crime'
p1959
I2373
sS'only'
p1960
I1826
sS'going'
p1961
I1827
sS'black'
p1962
I1828
sS'Sox'
p1963
I3317
sS'Services'
p1964
I1831
sS'Housing'
p1965
I1833
sS'congressional'
p1966
I1834
sS'dispute'
p1967
I1835
sS'ranking'
p1968
I1836
sS'over'
p1969
I1837
sS'non-invasive'
p1970
I1838
sS'stay'
p1971
I4785
sS'get'
p1972
I1839
sS'contracts'
p1973
I1454
sS'assistant'
p1974
I1841
sS'jazz'
p1975
I1842
sS'RISC'
p1976
I1843
sS'employers'
p1977
I1477
sS'affecting'
p1978
I1901
sS'hailed'
p1979
I1846
sS'nearly'
p1980
I1847
sS'BNL'
p1981
I1848
sS'Richard'
p1982
I4147
sS'recombinant'
p1983
I1849
sS'neither'
p1984
I4332
sS'comment'
p1985
I4371
sS'secondary'
p1986
I1851
sS'prime'
p1987
I1852
sS'Filipinos'
p1988
I1853
sS'W.'
p1989
I1856
sS'seldom'
p1990
I1857
sS'versions'
p1991
I1858
sS'borrow'
p1992
I1859
sS'yield'
p1993
I1860
sS'morning'
p1994
I1578
sS'miles'
p1995
I1862
sS'losers'
p1996
I1863
sS'predicted'
p1997
I1864
sS'forces'
p1998
I3367
sS'At'
p1999
I3622
sS'discussing'
p2000
I1622
sS'administration'
p2001
I4461
sS'declared'
p2002
I1868
sS'concert'
p2003
I1869
sS'encourages'
p2004
I1870
sS'bids'
p2005
I1871
sS'whitewash'
p2006
I1872
sS'ends'
p2007
I4338
sS'seat'
p2008
I1874
sS'elected'
p2009
I1875
sS'college'
p2010
I1876
sS'slashing'
p2011
I1877
sS'Neave'
p2012
I1878
sS'Manufacturers'
p2013
I1880
sS'surgery'
p2014
I1881
sS'concern'
p2015
I1883
sS'retire'
p2016
I1884
sS'Church'
p2017
I3242
sS'Shopping'
p2018
I1885
sS'Johnson'
p2019
I1909
sS'mortgage'
p2020
I1887
sS'That'
p2021
I1786
sS'ways'
p2022
I1789
sS'subsequent'
p2023
I1792
sS'review'
p2024
I1694
sS'representatives'
p2025
I1892
sS'repeal'
p2026
I4792
sS'forecast'
p2027
I1815
sS'weapons'
p2028
I1817
sS'single-A-3'
p2029
I4343
sS'outside'
p2030
I1108
sS'Mather'
p2031
I1898
sS'Members'
p2032
I1899
sS'between'
p2033
I1900
sS'Baja'
p2034
I1496
sS'cautiously'
p2035
I3545
sS'Mitsubishi'
p2036
I1903
sS'across'
p2037
I1904
sS'toying'
p2038
I1905
sS'gives'
p2039
I1906
sS'infrastructure'
p2040
I1907
sS'jobs'
p2041
I1908
sS'FOR'
p2042
I1886
sS'U.S.'
p2043
I1911
sS'apiece'
p2044
I3547
sS'26'
p2045
I2717
sS'rapidly'
p2046
I2719
sS'Securities'
p2047
I1914
sS'10.2'
p2048
I334
sS'diners'
p2049
I1918
sS'Each'
p2050
I1919
sS'article'
p2051
I1920
sS'spark'
p2052
I1921
sS'cities'
p2053
I1922
sS'come'
p2054
I1923
sS'reaction'
p2055
I1925
sS'dates'
p2056
I1926
sS'acquiring'
p2057
I1927
sS'missions'
p2058
I2005
sS'many'
p2059
I1930
sS'trader'
p2060
I1931
sS'trades'
p2061
I1932
sS'according'
p2062
I1933
sS'contract'
p2063
I1934
sS'officer'
p2064
I1935
sS'personal'
p2065
I1936
sS'concentrate'
p2066
I1917
sS'Wall'
p2067
I4724
sS'Laboratory'
p2068
I1938
sS'holders'
p2069
I1939
sS'traded'
p2070
I1940
sS'Investment'
p2071
I1941
sS'comes'
p2072
I1942
sS'nearby'
p2073
I1943
sS'affairs'
p2074
I1945
sS'provoked'
p2075
I4467
sS'Mortgage'
p2076
I1947
sS'passenger'
p2077
I1948
sS'color'
p2078
I1949
sS'Pictures'
p2079
I1950
sS'hybrids'
p2080
I1951
sS'Nekoosa'
p2081
I4352
sS'jeans'
p2082
I1952
sS'promises'
p2083
I186
sS'pop'
p2084
I1954
sS'expectations'
p2085
I1265
sS'60'
p2086
I1956
sS'61'
p2087
I1957
sS'maintained'
p2088
I1958
sS'grants'
p2089
I1959
sS'Jahn'
p2090
I600
sS'learning'
p2091
I1961
sS'67'
p2092
I3920
sS'68'
p2093
I1963
sS'constant'
p2094
I1964
sS'bizarre'
p2095
I1965
sS'Horton'
p2096
I1966
sS'Leader'
p2097
I1967
sS'considering'
p2098
I1968
sS'sprays'
p2099
I1969
sS'unusual'
p2100
I1970
sS'Calif.'
p2101
I1971
sS'conventional-arms'
p2102
I4213
sS'Electric'
p2103
I2237
sS'P.'
p2104
I4354
sS'recognize'
p2105
I4744
sS'But'
p2106
I1974
sS'coupe'
p2107
I1975
sS'defined'
p2108
I3556
sS'Healthcare'
p2109
I4716
sS'Lynch'
p2110
I1977
sS'motives'
p2111
I1978
sS'Nuclear'
p2112
I1979
sS'technical'
p2113
I3238
sS'hardly'
p2114
I1980
sS'estimated'
p2115
I1981
sS'500'
p2116
I1982
sS'disclosed'
p2117
I2376
sS'wants'
p2118
I1984
sS'BankAmerica'
p2119
I1985
sS'direction'
p2120
I1986
sS'enable'
p2121
I1987
sS'shopping'
p2122
I4283
sS'gray'
p2123
I4276
sS'influence'
p2124
I3560
sS'offered'
p2125
I1990
sS'formed'
p2126
I1991
sS'Deseret'
p2127
I1993
sS'centerpiece'
p2128
I1994
sS'dramatic'
p2129
I1996
sS'wake'
p2130
I1997
sS'suspicions'
p2131
I893
sS'stems'
p2132
I1999
sS'suspected'
p2133
I2000
sS'former'
p2134
I2003
sS'those'
p2135
I2004
sS'pilot'
p2136
I2438
sS'paying'
p2137
I2006
sS'per-capita'
p2138
I2007
sS'myself'
p2139
I2447
sS'MORTGAGE'
p2140
I2010
sS'developing'
p2141
I2011
sS'these'
p2142
I2012
sS'consultant'
p2143
I2013
sS'Reagan'
p2144
I2014
sS'cash'
p2145
I2481
sS"n't"
p2146
I2016
sS'Edward'
p2147
I3564
sS'ally'
p2148
I2736
sS'policies'
p2149
I2019
sS'newspaper'
p2150
I2020
sS'Laurel'
p2151
I325
sS'Order'
p2152
I4490
sS'Moody'
p2153
I2737
sS'sorghum'
p2154
I2022
sS'region'
p2155
I2023
sS'exercisable'
p2156
I2024
sS'operate'
p2157
I1779
sS'managing'
p2158
I4444
sS'conferences'
p2159
I2026
sS'eventually'
p2160
I2027
sS'soil'
p2161
I2028
sS'Democratic'
p2162
I4122
sS'health-care'
p2163
I2029
sS'engaged'
p2164
I2030
sS'coffee'
p2165
I2031
sS'Peters'
p2166
I2032
sS'refinery'
p2167
I2033
sS'increased'
p2168
I4556
sS'evening'
p2169
I2739
sS'drug'
p2170
I4365
sS'Bar'
p2171
I2740
sS'13.5'
p2172
I2038
sS'technology'
p2173
I2039
sS'worry'
p2174
I2041
sS'13.1'
p2175
I2042
sS'bags'
p2176
I2043
sS'par'
p2177
I1143
sS'dragging'
p2178
I3569
sS'develop'
p2179
I2046
sS'handled'
p2180
I2047
sS'media'
p2181
I2049
sS'granted'
p2182
I2050
sS'negotiating'
p2183
I4050
sS'same'
p2184
I2053
sS'check'
p2185
I596
sS'Freddie'
p2186
I2055
sS'inquiry'
p2187
I2056
sS'550,000'
p2188
I2057
sS'When'
p2189
I2058
sS'a.m.'
p2190
I2059
sS'cotton'
p2191
I3571
sS'bring'
p2192
I4225
sS'events'
p2193
I2061
sS'status'
p2194
I2062
sS'oil'
p2195
I2063
sS'edged'
p2196
I2064
sS'Salvador'
p2197
I2065
sS'abandoned'
p2198
I4427
sS'I'
p2199
I2066
sS'boosted'
p2200
I2067
sS'refusal'
p2201
I1810
sS'Toyota'
p2202
I2069
sS'Rockefeller'
p2203
I2070
sS'companion'
p2204
I2071
sS'producers'
p2205
I881
sS'statutory'
p2206
I2073
sS'driven'
p2207
I2834
sS'delicate'
p2208
I2853
sS'intended'
p2209
I2666
sS'Banks'
p2210
I2864
sS'climbing'
p2211
I2077
sS'totally'
p2212
I2079
sS'complained'
p2213
I2081
sS'drain'
p2214
I2082
sS'ballooning'
p2215
I2083
sS'academics'
p2216
I565
sS'charges'
p2217
I2085
sS'sales'
p2218
I4413
sS'Renk'
p2219
I2086
sS'no'
p2220
I2087
sS'Motors'
p2221
I1972
sS'roughly'
p2222
I2089
sS'mortgages'
p2223
I2090
sS'Rep.'
p2224
I2091
sS'severe'
p2225
I2092
sS'costs'
p2226
I2093
sS'relief'
p2227
I2094
sS'components'
p2228
I2095
sS'In'
p2229
I2096
sS'researchers'
p2230
I2100
sS'If'
p2231
I518
sS'summer'
p2232
I2102
sS'Ruffo'
p2233
I2103
sS'Service'
p2234
I2104
sS'among'
p2235
I2105
sS'Ways'
p2236
I1916
sS'formula'
p2237
I1600
sS'adjustments'
p2238
I2108
sS'superconductors'
p2239
I2109
sS'Minn.'
p2240
I2110
sS'Pine'
p2241
I1371
sS'Conservative'
p2242
I749
sS'communities'
p2243
I2462
sS'violent'
p2244
I1181
sS'kill'
p2245
I2116
sS'So'
p2246
I2604
sS'touch'
p2247
I2117
sS'Markets'
p2248
I2118
sS'Sterling'
p2249
I2119
sS'announcement'
p2250
I2120
sS'renewed'
p2251
I2122
sS'thinking'
p2252
I2124
sS'tourism'
p2253
I2125
sS'seems'
p2254
I2126
sS'politicians'
p2255
I3579
sS'Weekes'
p2256
I2128
sS'nominees'
p2257
I4330
sS'1.8200'
p2258
I2129
sS'setting'
p2259
I2130
sS'bloc'
p2260
I2131
sS'treatment'
p2261
I2132
sS'Although'
p2262
I2133
sS'Wash.'
p2263
I2135
sS'struck'
p2264
I2136
sS'disrupt'
p2265
I2137
sS'pill'
p2266
I2138
sS'real'
p2267
I2139
sS'drink'
p2268
I4480
sS'aspects'
p2269
I2141
sS'around'
p2270
I2142
sS'last'
p2271
I3147
sS'read'
p2272
I2144
sS'Many'
p2273
I3
sS'papers'
p2274
I1598
sS'period'
p2275
I1953
sS'Project'
p2276
I2148
sS'inflation'
p2277
I2149
sS'traffic'
p2278
I2150
sS'pages'
p2279
I1777
sS'listening'
p2280
I2152
sS'credentials'
p2281
I134
sS'railroad'
p2282
I2154
sS'execution'
p2283
I2155
sS'disappointed'
p2284
I2156
sS'U.N.'
p2285
I2157
sS'furniture'
p2286
I1577
sS'Shop'
p2287
I2159
sS'standstill'
p2288
I2162
sS'pounds'
p2289
I2164
sS'62'
p2290
I2929
sS'serves'
p2291
I2166
sS'subordinated'
p2292
I1552
sS'annually'
p2293
I2168
sS'chamber'
p2294
I2169
sS'benefit'
p2295
I2170
sS'superiority'
p2296
I2172
sS'either'
p2297
I2173
sS'retailers'
p2298
I2174
sS'Suns'
p2299
I2084
sS'output'
p2300
I2176
sS'downward'
p2301
I2177
sS'reduced'
p2302
I3459
sS'insured'
p2303
I4711
sS'65'
p2304
I1960
sS'Jewelry'
p2305
I2185
sS'Entertainment'
p2306
I2186
sS'West'
p2307
I2187
sS'Since'
p2308
I2189
sS'draw'
p2309
I3586
sS'Mark'
p2310
I2191
sS'depressed'
p2311
I1707
sS'Kimberly-Clark'
p2312
I2192
sS'images'
p2313
I2193
sS'New'
p2314
I2194
sS'Net'
p2315
I2195
sS'intact'
p2316
I2196
sS'matching'
p2317
I2198
sS'Vienna'
p2318
I2199
sS'gross'
p2319
I3590
sS'swaps'
p2320
I2202
sS'two-year'
p2321
I2204
sS'tube'
p2322
I2205
sS'Earlier'
p2323
I2206
sS'recorded'
p2324
I2207
sS'legal'
p2325
I2851
sS'QVC'
p2326
I2209
sS'toad'
p2327
I712
sS'dealership'
p2328
I2211
sS'On'
p2329
I4268
sS'deficit'
p2330
I2212
sS'provides'
p2331
I2213
sS'provider'
p2332
I2214
sS'affiliate'
p2333
I2215
sS'moderate'
p2334
I2216
sS'Projects'
p2335
I2217
sS'Chapter'
p2336
I2218
sS'specializing'
p2337
I2219
sS'felt'
p2338
I7
sS'assembly'
p2339
I2221
sS'scientific'
p2340
I2222
sS'power'
p2341
I2223
sS'retains'
p2342
I2224
sS'equivalent'
p2343
I2225
sS'broker'
p2344
I2227
sS'notably'
p2345
I2228
sS'meets'
p2346
I2229
sS'leadership'
p2347
I2230
sS'found'
p2348
I2770
sS'containerboard'
p2349
I2233
sS'exciting'
p2350
I2234
sS'7.96'
p2351
I372
sS'released'
p2352
I2236
sS'executives'
p2353
I3919
sS'Goya'
p2354
I2238
sS'on'
p2355
I2239
sS'conducting'
p2356
I2240
sS'central'
p2357
I2241
sS'S.A.'
p2358
I2242
sS'Revenue'
p2359
I2243
sS'of'
p2360
I2244
sS'industry'
p2361
I2245
sS'favorite'
p2362
I2246
sS'drag'
p2363
I3597
sS'side'
p2364
I2248
sS'fell'
p2365
I2249
sS'stand'
p2366
I1105
sS'Chevron'
p2367
I2252
sS'act'
p2368
I2253
sS'mixed'
p2369
I2254
sS'bond'
p2370
I2256
sS'or'
p2371
I2257
sS'road'
p2372
I2258
sS'tape'
p2373
I4248
sS'Information'
p2374
I4143
sS'8.50'
p2375
I2260
sS'outlook'
p2376
I2261
sS'8.55'
p2377
I2262
sS'No'
p2378
I2263
sS'coupon'
p2379
I2264
sS'instruments'
p2380
I2265
sS'image'
p2381
I2266
sS'signing'
p2382
I2749
sS'authorities'
p2383
I2268
sS'involvement'
p2384
I278
sS'determine'
p2385
I2270
sS'operator'
p2386
I2271
sS'valuable'
p2387
I2272
sS'your'
p2388
I2273
sS'Lease'
p2389
I2274
sS'fast'
p2390
I2276
sS'Moon'
p2391
I4719
sS'her'
p2392
I2277
sS'Though'
p2393
I766
sS'strictly'
p2394
I2279
sS'there'
p2395
I1154
sS'styling'
p2396
I2281
sS'strict'
p2397
I291
sS'Infiniti'
p2398
I2283
sS'low'
p2399
I2284
sS'sealed'
p2400
I2285
sS'alleges'
p2401
I2287
sS'fastball'
p2402
I2288
sS'combined'
p2403
I2289
sS'revamped'
p2404
I2290
sS'complete'
p2405
I2291
sS'enough'
p2406
I2292
sS'signs'
p2407
I2710
sS'Vosges'
p2408
I2293
sS'pleased'
p2409
I3883
sS'delayed'
p2410
I2296
sS'principles'
p2411
I2297
sS'brain'
p2412
I2299
sS'Broberg'
p2413
I2300
sS'elimination'
p2414
I2301
sS'technologies'
p2415
I2302
sS'trying'
p2416
I2303
sS'with'
p2417
I2304
sg23
I1955
sS'buying'
p2418
I2305
sS'pull'
p2419
I2307
sS'hire'
p2420
I2308
sS'fraud'
p2421
I2309
sS'arranged'
p2422
I2310
sS'co-chief'
p2423
I2312
sS'default'
p2424
I2313
sS'House'
p2425
I2314
sS'5/8'
p2426
I2315
sS'Bull'
p2427
I4625
sS'Plant'
p2428
I2669
sS'Marston'
p2429
I2317
sS'Eddie'
p2430
I2318
sS'politically'
p2431
I2321
sS'advantage'
p2432
I2322
sS'agree'
p2433
I2323
sS'detailed'
p2434
I2324
sS'gone'
p2435
I2325
sS'required'
p2436
I3613
sS'Guber'
p2437
I4249
sS'ad'
p2438
I2329
sS'Alamos'
p2439
I1293
sS'totaling'
p2440
I2331
sS'moved'
p2441
I1196
sS'Airlines'
p2442
I2334
sS'watches'
p2443
I2335
sS'an'
p2444
I2336
sS'alarm'
p2445
I2337
sS'as'
p2446
I2338
sS'Moonies'
p2447
I4406
sS'daily'
p2448
I1822
sS'file'
p2449
I2341
sS'advertisers'
p2450
I2791
sS'99.1875'
p2451
I2343
sS'politics'
p2452
I728
sS'himself'
p2453
I3509
sS'moves'
p2454
I2345
sS'operation'
p2455
I2792
sS'fill'
p2456
I2347
sS'4.5'
p2457
I653
sS'again'
p2458
I2349
sS'4.7'
p2459
I2350
sS'Jake'
p2460
I2351
sS'receive'
p2461
I3752
sS'4.3'
p2462
I2352
sS'4.2'
p2463
I1345
sS'personnel'
p2464
I2354
sS'hybrid'
p2465
I2355
sS'Second'
p2466
I2356
sS'abolish'
p2467
I2357
sS'field'
p2468
I2358
sS'narrowing'
p2469
I2359
sS'KGB'
p2470
I3506
sS'Atlantic'
p2471
I2361
sS'Drilling'
p2472
I2362
sS'rioting'
p2473
I4410
sS'Stamford'
p2474
I3621
sS'you'
p2475
I2364
sS'Law'
p2476
I2365
sS'Johnstown'
p2477
I601
sS'poor'
p2478
I2367
sS'Great'
p2479
I2368
sS'blessing'
p2480
I3956
sS'Alex'
p2481
I2370
sS'separate'
p2482
I2371
sS'12.4'
p2483
I2372
sS'Employees'
p2484
I2374
sS'Paramount'
p2485
I2375
sS'reached'
p2486
I4083
sS'attributed'
p2487
I4709
sS'includes'
p2488
I2377
sS'8.04'
p2489
I2378
sS'important'
p2490
I2379
sS'accounts'
p2491
I2269
sS'brands'
p2492
I2382
sS'creditor'
p2493
I2799
sS'stocks'
p2494
I1668
sS'fiscal'
p2495
I2387
sS'observers'
p2496
I2388
sS'Major'
p2497
I2389
sS'US$'
p2498
I2390
sS'Mexican'
p2499
I2391
sS'arsenals'
p2500
I668
sS'calls'
p2501
I2393
sS'refinanced'
p2502
I1879
sS'Tropics'
p2503
I2395
sS'tricks'
p2504
I2396
sS'principal'
p2505
I4232
sS'posts'
p2506
I2397
sS'directors'
p2507
I2398
sS'Street'
p2508
I2399
sS'Year'
p2509
I2400
sS'overseas'
p2510
I2401
sS'Warsaw'
p2511
I3631
sS'neurosurgeon'
p2512
I4635
sS'wastewater'
p2513
I2403
sS'Analysts'
p2514
I1998
sS'Canada'
p2515
I2406
sS'all'
p2516
I2407
sS'since'
p2517
I2802
sS'9/16'
p2518
I19
sS'founder'
p2519
I2410
sS'caused'
p2520
I2411
sS'Workers'
p2521
I2412
sS'CDs'
p2522
I4235
sS'dollar'
p2523
I2414
sS'month'
p2524
I2417
sS'founded'
p2525
I2418
sS'balloon'
p2526
I4460
sS'deadline'
p2527
I70
sS'Take'
p2528
I2420
sS'cooperative'
p2529
I80
sS'talks'
p2530
I2423
sS'follow'
p2531
I2424
sS'settlement'
p2532
I2425
sS'decisions'
p2533
I2426
sS'reluctant'
p2534
I1518
sS'William'
p2535
I775
sS'number'
p2536
I2860
sS'referring'
p2537
I2429
sS'jewelry'
p2538
I3419
sS'opportunities'
p2539
I2430
sS'Trade'
p2540
I3399
sS'insects'
p2541
I3661
sS'to'
p2542
I2431
sS'program'
p2543
I2432
sS'dairy'
p2544
I2433
sS'14'
p2545
I2434
sS'safety'
p2546
I2436
sS'lawmakers'
p2547
I2437
sS'longtime'
p2548
I2809
sS'PRIME'
p2549
I2440
sS'activities'
p2550
I1593
sS'global'
p2551
I2442
sS'premium'
p2552
I2443
sS'song'
p2553
I2444
sS'very'
p2554
I2445
sS'Alaska'
p2555
I2009
sS'induce'
p2556
I277
sS'results'
p2557
I3638
sS'Erwin'
p2558
I2450
sS'blockade'
p2559
I2451
sS'worst'
p2560
I2452
sS'decide'
p2561
I2454
sS'got'
p2562
I2113
sS'existing'
p2563
I3639
sS'condition'
p2564
I2458
sS'Cockburn'
p2565
I2459
sS'delivery'
p2566
I4710
sS'`'
p2567
I2460
sS'unlike'
p2568
I4428
sS'cable'
p2569
I2463
sS'--'
p2570
I2465
sS'grand-jury'
p2571
I2466
sS'list'
p2572
I2467
sS'joined'
p2573
I2468
sS'large'
p2574
I2469
sS'small'
p2575
I2470
sS'economically'
p2576
I2472
sS'Seidman'
p2577
I2473
sS'3.18'
p2578
I2474
sS'owned'
p2579
I4075
sS'triple-A'
p2580
I2475
sS'Nomura'
p2581
I2476
sS'300ZX'
p2582
I4430
sS'penalties'
p2583
I2478
sS'193'
p2584
I2480
sS'past'
p2585
I2482
sS'go'
p2586
I3644
sS'Only'
p2587
I2484
sS'design'
p2588
I2485
sS'lawyer'
p2589
I2487
sS'pass'
p2590
I2488
sS'further'
p2591
I560
sS'East'
p2592
I2490
sS'investment'
p2593
I2491
sS'10.48'
p2594
I2492
sS'HUD'
p2595
I2493
sS'will'
p2596
I4434
sS'what'
p2597
I2494
sS'Korea'
p2598
I2495
sS'stood'
p2599
I2496
sS'consumers'
p2600
I2497
sS'indicated'
p2601
I4631
sS'investing'
p2602
I2498
sS'deeply'
p2603
I612
sS'Elanco'
p2604
I2500
sS'judiciary'
p2605
I4559
sS'version'
p2606
I2502
sS'scientists'
p2607
I2503
sS'certificates'
p2608
I661
sS'learned'
p2609
I2505
sS'seemed'
p2610
I3650
sS'public'
p2611
I2508
sS'contrast'
p2612
I2509
sS'movement'
p2613
I2510
sS'turmoil'
p2614
I2511
sS'full'
p2615
I2512
sS'estate'
p2616
I2513
sS'ranged'
p2617
I2514
sS'Alltel'
p2618
I2515
sS'Finland'
p2619
I2516
sS'component'
p2620
I2517
sS'fueling'
p2621
I3046
sS'answers'
p2622
I2518
sS'prepayment'
p2623
I2519
sS'hours'
p2624
I2520
sS'Arthur'
p2625
I746
sS'anticipation'
p2626
I964
sS'operating'
p2627
I2523
sS'situation'
p2628
I2021
sS'Nahas'
p2629
I2525
sS'soon'
p2630
I2526
sS'buy'
p2631
I4701
sS'ascending'
p2632
I1854
sS'Spencer'
p2633
I2528
sS'thrift'
p2634
I2529
sS'Borden'
p2635
I2530
sS'sensory'
p2636
I2531
sS'900'
p2637
I2532
sS'prosecutors'
p2638
I2533
sS'naval'
p2639
I2534
sS'ahead'
p2640
I820
sS'extraordinary'
p2641
I2536
sS'else'
p2642
I3215
sS'margin'
p2643
I2537
sS'inspired'
p2644
I2538
sS'losses'
p2645
I2539
sS'allows'
p2646
I2540
sS'qualify'
p2647
I2825
sS'Dole'
p2648
I847
sS'Any'
p2649
I4439
sS'prior'
p2650
I2544
sS'Keenan'
p2651
I859
sS'Cranston-Mitchell'
p2652
I3029
sS'advertising'
p2653
I2547
sS'published'
p2654
I875
sS'action'
p2655
I2549
sS'narrow'
p2656
I2551
sS'options'
p2657
I2552
sS'point'
p2658
I4538
sS'sticking'
p2659
I2554
sS'arms-control'
p2660
I2555
sS'via'
p2661
I2556
sS'followed'
p2662
I2557
sS'family'
p2663
I932
sS'<root>'
p2664
I3406
sS'Stanza'
p2665
I2559
sS'enactment'
p2666
I2560
sS'10,000'
p2667
I2562
sS'put'
p2668
I2828
sS'aimed'
p2669
I986
sS'trained'
p2670
I2565
sS'Standard'
p2671
I2566
sS'establish'
p2672
I2567
sS'select'
p2673
I2568
sS'Europe'
p2674
I2569
sS'shareholders'
p2675
I1403
sS'wanted'
p2676
I2571
sS'eye'
p2677
I2572
sS'takes'
p2678
I2573
sS'presence'
p2679
I2574
sS'Hewlett-Packard'
p2680
I2575
sS'Egg'
p2681
I2577
sS'one-day'
p2682
I1050
sS'acrimony'
p2683
I2650
sS'two'
p2684
I2579
sS'N.J.'
p2685
I4016
sS'Investments'
p2686
I2580
sS'Corp'
p2687
I2582
sS'Kirgizia'
p2688
I2833
sS'familiar'
p2689
I4259
sS'libel'
p2690
I1096
sS'taken'
p2691
I1100
sS'promoting'
p2692
I2613
sS'markets'
p2693
I2587
sS'Conlon'
p2694
I2588
sS'minor'
p2695
I2589
sS'more'
p2696
I2590
sS'Manville'
p2697
I2591
sS'lowering'
p2698
I2592
sS'door'
p2699
I2593
sS'LTV'
p2700
I1149
sS'tobacco'
p2701
I4281
sS'Kennedy'
p2702
I2595
sS'FEDERAL'
p2703
I2596
sS'division'
p2704
I2535
sS'Philippines'
p2705
I1679
sS'LaFalce'
p2706
I2600
sS'telephone'
p2707
I2601
sS'Banking'
p2708
I1193
sS'American'
p2709
I2603
sS'controlling'
p2710
I1207
sS'stick'
p2711
I2605
sS'broke'
p2712
I2606
sS'particular'
p2713
I2607
sS'known'
p2714
I2608
sS'retained'
p2715
I2836
sS'mellow'
p2716
I2610
sS'factories'
p2717
I2611
sS'producing'
p2718
I2612
sS'town'
p2719
I2614
sS'none'
p2720
I2415
sS'Now'
p2721
I3666
sS'hour'
p2722
I2208
sS'faced'
p2723
I4405
sS'Zell'
p2724
I1007
sS'other'
p2725
I4769
sS'remain'
p2726
I2619
sS'del'
p2727
I328
sS'budgets'
p2728
I1321
sS'forward-rate'
p2729
I2622
sS'pioneered'
p2730
I1126
sS'strategies'
p2731
I2624
sS'male'
p2732
I2625
sS'Berthold'
p2733
I2626
sS'Inc'
p2734
I1356
sS'Conference'
p2735
I2628
sS'purchases'
p2736
I2629
sS'Retirement'
p2737
I2630
sS'prompt'
p2738
I2631
sS'Yale'
p2739
I4073
sS'adviser'
p2740
I1809
sS'lives'
p2741
I3219
sS'Ariz.'
p2742
I4451
sS'share'
p2743
I2633
sS'accept'
p2744
I2634
sS'states'
p2745
I2635
sS'pushed'
p2746
I2636
sS'Lyphomed'
p2747
I1424
sS'way'
p2748
I1855
sS'protects'
p2749
I2639
sS'purchased'
p2750
I933
sS'sense'
p2751
I2641
sS'sharp'
p2752
I2181
sS'Calif'
p2753
I2643
sS'chores'
p2754
I1463
sS'maturing'
p2755
I1466
sS'needs'
p2756
I2646
sS'Parliament'
p2757
I37
sS'5.4'
p2758
I903
sS'Raymond'
p2759
I1784
sS'rather'
p2760
I799
sS'plans'
p2761
I2652
sS'breaking'
p2762
I2653
sS'United'
p2763
I4189
sS'surpassed'
p2764
I2654
sS'Sales'
p2765
I2655
sS'stemming'
p2766
I2657
sS'earnings'
p2767
I2658
sS'speeding'
p2768
I2659
sS'businessmen'
p2769
I2846
sS'Hanover'
p2770
I2662
sS'Television'
p2771
I1573
sS'tried'
p2772
I404
sS'Schneider'
p2773
I1246
sS'minimum'
p2774
I2638
sS'different'
p2775
I396
sS'Foreign'
p2776
I2670
sS'reflect'
p2777
I2671
sS'retirement'
p2778
I3340
sS'tries'
p2779
I2672
sS'Nebraska'
p2780
I1627
sS'coming'
p2781
I2675
sS'Swiss'
p2782
I2676
sS'response'
p2783
I1669
sS'nonetheless'
p2784
I4758
sS'a'
p2785
I1682
sS'changes'
p2786
I2680
sS'short'
p2787
I1693
sS'Mexico'
p2788
I2682
sS'overnight'
p2789
I2683
sS'Deep'
p2790
I2684
sS'Haag'
p2791
I2852
sS'renewing'
p2792
I2686
sS'broadcasting'
p2793
I2687
sS'ego'
p2794
I2688
sS'Democrats'
p2795
I2689
sS'fundamental'
p2796
I2690
sS'pay'
p2797
I2691
sS'banks'
p2798
I2692
sS'lasting'
p2799
I2693
sS'dream'
p2800
I2694
sS'privileges'
p2801
I2660
sS'turnover'
p2802
I1124
sS'greats'
p2803
I2697
sS'What'
p2804
I429
sS'help'
p2805
I2699
sS'developed'
p2806
I1830
sS'Nikko'
p2807
I1743
sS'trade'
p2808
I2703
sS'held'
p2809
I2705
sS'attitude'
p2810
I2706
sS'paper'
p2811
I2707
sS'through'
p2812
I2708
sS'committee'
p2813
I2709
sS'committed'
p2814
I1840
sS'documents'
p2815
I4167
sS'clarinet'
p2816
I2711
sS'Edelman'
p2817
I2712
sS'agrees'
p2818
I4707
sS'trouble'
p2819
I1439
sS'Texas'
p2820
I2714
sS'24'
p2821
I2715
sS'25'
p2822
I2716
sS'style'
p2823
I1913
sS'27'
p2824
I2718
sS'20'
p2825
I1610
sS'21'
p2826
I2720
sS'22'
p2827
I1928
sS'23'
p2828
I2722
sS'Fiat'
p2829
I3860
sS'sale'
p2830
I2725
sS'28'
p2831
I2726
sS'29'
p2832
I2727
sS'actually'
p2833
I2728
sS'late'
p2834
I3664
sS'Phelan'
p2835
I2858
sS'Marietta'
p2836
I2731
sS'systems'
p2837
I1983
sS'annual'
p2838
I3151
sS'peanuts'
p2839
I2733
sS'Brussels'
p2840
I2734
sS'might'
p2841
I1240
sS'lire'
p2842
I2018
sS'arguments'
p2843
I2076
sS'tentatively'
p2844
I2738
sS'good'
p2845
I2035
sS'return'
p2846
I2037
sS'seeking'
p2847
I2742
sS'food'
p2848
I2743
sS'delivered'
p2849
I3417
sS'Michael'
p2850
I2745
sS'Bay'
p2851
I2078
sS'resigned'
p2852
I2748
sS'anticipates'
p2853
I2114
sS'formulating'
p2854
I2751
sS'Senior'
p2855
I2752
sS'hearing'
p2856
I2753
sS'complain'
p2857
I2754
sS'bigger'
p2858
I2197
sS'Amendment'
p2859
I2756
sS'easily'
p2860
I2143
sS'stopper'
p2861
I2758
sS'stated'
p2862
I2632
sS'Investors'
p2863
I3682
sS'adjacent'
p2864
I2762
sS'occasions'
p2865
I288
sS'Greene'
p2866
I2764
sS'Telephone'
p2867
I1995
sS'someone'
p2868
I2766
sS'habits'
p2869
I2767
sS'stopped'
p2870
I2768
sS'Council'
p2871
I2769
sS'letting'
p2872
I3339
sS'McDonnell'
p2873
I2232
sS'repeating'
p2874
I2771
sS'SFE'
p2875
I2772
sS'characterized'
p2876
I960
sS'investigators'
p2877
I2776
sS'heavy'
p2878
I2777
sS'week'
p2879
I2778
sS'harm'
p2880
I2779
sS'everyone'
p2881
I2780
sS'fail'
p2882
I4154
sS'Marcus'
p2883
I4474
sS'generation'
p2884
I2781
sS'house'
p2885
I2286
sS'energy'
p2886
I2783
sS'hard'
p2887
I2784
sS'reduce'
p2888
I2785
sS'idea'
p2889
I2786
sS'slowdown'
p2890
I2788
sS'high-production'
p2891
I2789
sS'expect'
p2892
I2790
sS'seniority'
p2893
I2342
sS'Panisse'
p2894
I2346
sS'standards'
p2895
I2446
sS'event'
p2896
I2794
sS'really'
p2897
I2795
sS'leave'
p2898
I1274
sS'initiatives'
p2899
I2797
sS'uninvited'
p2900
I2798
sS'funding'
p2901
I2383
sS'item'
p2902
I2800
sS'walked'
p2903
I3616
sS'blue-chip'
p2904
I2801
sS'Samuel'
p2905
I2408
sS'temporary'
p2906
I3286
sS'projected'
p2907
I1039
sS'research'
p2908
I2804
sS'1.75'
p2909
I2805
sS'participants'
p2910
I2806
sS'health'
p2911
I1313
sS'carpet'
p2912
I2427
sS'7'
p2913
I2810
sS'Prudential-Bache'
p2914
I2811
sS'flashes'
p2915
I4390
sS'1.78'
p2916
I2099
sS'Class'
p2917
I2813
sS'cost-cutting'
p2918
I2815
sS'IRS'
p2919
I2068
sS'disobedience'
p2920
I2817
sS'belief'
p2921
I2818
sS'risen'
p2922
I2819
sS'grand'
p2923
I3276
sS'upon'
p2924
I4481
sS'Plaza'
p2925
I2617
sS'According'
p2926
I2822
sS'depository'
p2927
I1278
sS'reason'
p2928
I2541
sS'base'
p2929
I2826
sS'imperial'
p2930
I4689
sS'members'
p2931
I2827
sS'ask'
p2932
I2563
sS'heads'
p2933
I2875
sS'rises'
p2934
I2830
sS'beginning'
p2935
I2831
sS'generate'
p2936
I2025
sS'Researchers'
p2937
I2583
sS'director'
p2938
I2072
sS'owners'
p2939
I2835
sS'benefits'
p2940
I809
sS'Congress'
p2941
I2837
sS'People'
p2942
I2838
sS'seasonal'
p2943
I2839
sS'Boston'
p2944
I2840
sS'computers'
p2945
I2841
sS'first-half'
p2946
I2449
sS'Debate'
p2947
I2843
sS'called'
p2948
I2844
sS'PAPER'
p2949
I2656
sS'Expect'
p2950
I2661
sS'threat'
p2951
I2847
sS'scheduled'
p2952
I2848
sS'Lexus'
p2953
I2849
sS'pilots'
p2954
I2850
sS'top'
p2955
I2704
sS'feed'
p2956
I2854
sS'Turkey'
p2957
I3694
sS'embraces'
p2958
I476
sS'amounted'
p2959
I4380
sS'slipped'
p2960
I2857
sS'feel'
p2961
I2730
sS'mistakenly'
p2962
I2859
sS'reflected'
p2963
I2746
sS'fancy'
p2964
I2861
sS'whom'
p2965
I2862
sS'well-known'
p2966
I2863
sS'unexpected'
p2967
I2865
sS'done'
p2968
I2866
sS'airborne'
p2969
I2879
sS'changing'
p2970
I2868
sS'slower'
p2971
I4630
sS'wages'
p2972
I2870
sS'speedometer'
p2973
I2871
sS'contended'
p2974
I2872
sS'passes'
p2975
I2873
sS'horse'
p2976
I2874
sS'Transportation'
p2977
I1613
sS'Medco'
p2978
I2876
sS'become'
p2979
I4588
sS'leading'
p2980
I2877
sS'WPP'
p2981
I2878
sS'least'
p2982
I2867
sS'lobby'
p2983
I4195
sS'180'
p2984
I2882
sS'station'
p2985
I2883
sS'difficulties'
p2986
I4327
sS'passed'
p2987
I2439
sS'dealing'
p2988
I2146
sS'Belgium'
p2989
I870
sS'Matthews'
p2990
I1690
sS'188'
p2991
I2888
sS'hundred'
p2992
I2889
sS'southern'
p2993
I2890
sS'voted'
p2994
I2891
sS'store'
p2995
I2892
sS'too'
p2996
I2893
sS'figures'
p2997
I4369
sS'noted'
p2998
I4582
sS'selling'
p2999
I2895
sS'statement'
p3000
I2884
sS'relationship'
p3001
I2897
sS'behind'
p3002
I2898
sS'Delta'
p3003
I2885
sS'appreciation'
p3004
I2900
sS'part'
p3005
I2901
sS'demonstrations'
p3006
I2903
sS'doctors'
p3007
I2904
sS'bonds'
p3008
I4257
sS'believe'
p3009
I2905
sS'convinced'
p3010
I2906
sS'percentage'
p3011
I2907
sS'869'
p3012
I2908
sS'king'
p3013
I2909
sS'kind'
p3014
I1374
sS'scheme'
p3015
I2911
sS'double'
p3016
I2912
sS'largely'
p3017
I2913
sS'finances'
p3018
I2914
sS'youth'
p3019
I2915
sS'determined'
p3020
I2916
sS'marriage'
p3021
I2917
sS'supposed'
p3022
I2918
sS'toward'
p3023
I2920
sS'ousted'
p3024
I2921
sS'Is'
p3025
I2922
sS'subsidies'
p3026
I3811
sS'procedural'
p3027
I2923
sS'normal'
p3028
I2924
sS'obstacles'
p3029
I2925
sS'businesslike'
p3030
I2926
sS'strengthen'
p3031
I2927
sS'constitutional'
p3032
I2088
sS'Peace'
p3033
I2930
sS'ceiling'
p3034
I2931
sS'Douglas'
p3035
I2932
sS'It'
p3036
I2933
sS'licenses'
p3037
I3706
sS'substantial'
p3038
I2935
sS'Achenbaum'
p3039
I2937
sS'Fortney'
p3040
I2938
sS'Equity'
p3041
I2939
sS'Posted'
p3042
I4473
sS'Industrial'
p3043
I4721
sS'organs'
p3044
I2940
sS'orders'
p3045
I2941
sS'vulnerable'
p3046
I2942
sS'option'
p3047
I2896
sS'sell'
p3048
I2943
sS'thought'
p3049
I4504
sS'collateralized'
p3050
I2945
sS'20,000'
p3051
I4049
sS'built'
p3052
I2946
sS'evasion'
p3053
I2947
sS'something'
p3054
I3965
sS'trip'
p3055
I2949
sS'Cos.'
p3056
I3316
sS'Price'
p3057
I2951
sS'officers'
p3058
I2952
sS'client'
p3059
I2953
sS'Scientists'
p3060
I4672
sS'also'
p3061
I2954
sS'appellate'
p3062
I2040
sS'Drexel'
p3063
I2956
sS'build'
p3064
I1161
sS'Kim'
p3065
I2958
sS'finding'
p3066
I2959
sS'restrictions'
p3067
I4358
sS'With'
p3068
I2961
sS'Germans'
p3069
I2962
sS'seized'
p3070
I3671
sS'play'
p3071
I2964
sS'added'
p3072
I2965
sS'critics'
p3073
I4023
sS'semiannual'
p3074
I2765
sS'eggs'
p3075
I2967
sS'measures'
p3076
I2968
sS'reach'
p3077
I2969
sS'Hawaii'
p3078
I2970
sS'me'
p3079
I2971
sS'76'
p3080
I2121
sS'75'
p3081
I1937
sS'hired'
p3082
I2974
sS'shareholder'
p3083
I2975
sS'plan'
p3084
I2976
sS'significant'
p3085
I2977
sS'70'
p3086
I2978
sS'nothing'
p3087
I2250
sS'The'
p3088
I2981
sS'Petroleos'
p3089
I2982
sS'approved'
p3090
I2983
sS'soared'
p3091
I570
sS'stands'
p3092
I2985
sS'Mehl'
p3093
I2986
sS'dealers'
p3094
I2987
sS'sizable'
p3095
I2988
sS'Institutional'
p3096
I2989
sS'performances'
p3097
I2990
sS'45-year-old'
p3098
I1367
sS'sometimes'
p3099
I2992
sS'cover'
p3100
I2993
sS'shortly'
p3101
I2994
sS'drawing'
p3102
I4511
sS'traditional'
p3103
I2996
sS'charitable'
p3104
I2997
sS'three-month'
p3105
I2998
sS'Lambert'
p3106
I2999
sS'1/2'
p3107
I3817
sS'British'
p3108
I4045
sS'justify'
p3109
I2101
sS'Robinson'
p3110
I3002
sS'institutions'
p3111
I2294
sS'favorable'
p3112
I3004
sS'sector'
p3113
I3005
sS'stalked'
p3114
I3006
sS'66'
p3115
I3007
sS'golf'
p3116
I3008
sS'rebels'
p3117
I3009
sS'gold'
p3118
I3010
sS'Norris'
p3119
I3011
sS'obligations'
p3120
I3012
sS'commissions'
p3121
I3013
sS'league'
p3122
I4409
sS'judges'
p3123
I3741
sS'pollinate'
p3124
I4488
sS'Majority'
p3125
I3016
sS'session'
p3126
I3017
sS'businesses'
p3127
I3018
sS'Hill'
p3128
I1373
sS'stores'
p3129
I4515
sS'Keating'
p3130
I3021
sS'Lilly'
p3131
I3022
sS'find'
p3132
I1503
sS'impact'
p3133
I3025
sS'cell'
p3134
I3720
sS'indicator'
p3135
I3027
sS'justice'
p3136
I3030
sS'writer'
p3137
I3031
sS'distributed'
p3138
I3032
sS'French'
p3139
I3033
sS'penalty'
p3140
I3034
sS'being'
p3141
I2106
sS'flights'
p3142
I3036
sS'rubles'
p3143
I3804
sS'generators'
p3144
I3038
sS'condom'
p3145
I3039
sS'money'
p3146
I2107
sS'override'
p3147
I3041
sS'Lyonnais'
p3148
I3042
sS'appealing'
p3149
I4133
sS'sure'
p3150
I3044
sS'giants'
p3151
I3045
sS'his'
p3152
I2326
sS'hit'
p3153
I3047
sS'gains'
p3154
I3048
sS'meanwhile'
p3155
I3049
sS'Bowater'
p3156
I3050
sS'banned'
p3157
I3051
sS'flowing'
p3158
I3725
sS'Jersey'
p3159
I2732
sS'financing'
p3160
I2910
sS'mortgage-backed'
p3161
I3054
sS'advocates'
p3162
I3916
sS'While'
p3163
I3055
sS'Cilcorp'
p3164
I2960
sS'5,000'
p3165
I3057
sS'actions'
p3166
I2111
sS'closely'
p3167
I3059
sS'competing'
p3168
I593
sS'1.80'
p3169
I1223
sS'NAM'
p3170
I2112
sS'running'
p3171
I2842
sS'him'
p3172
I2787
sS'merchandise'
p3173
I3064
sS'Maxima'
p3174
I3065
sS'grievances'
p3175
I3066
sS'resolve'
p3176
I3067
sS'Gant'
p3177
I1170
sS'recycled'
p3178
I3069
sS'debt-equity'
p3179
I3070
sS'Kong'
p3180
I3071
sS'Mexicans'
p3181
I2115
sS'remove'
p3182
I3074
sS'six-month'
p3183
I3075
sS'banking'
p3184
I3076
sS'J.'
p3185
I3077
sS'common'
p3186
I3078
sS'activity'
p3187
I3079
sS'river'
p3188
I3081
sS'wrote'
p3189
I3082
sS'rumored'
p3190
I3083
sS'set'
p3191
I3084
sS'could'
p3192
I4057
sS'For'
p3193
I3086
sS'Nov.'
p3194
I3087
sS'throwing'
p3195
I3088
sS'declines'
p3196
I3089
sS'opposing'
p3197
I3831
sS'activists'
p3198
I3090
sS'Rosen'
p3199
I3091
sS'instituted'
p3200
I3092
sS'France'
p3201
I3093
sS'Enfield'
p3202
I2741
sS'see'
p3203
I3095
sS'professional'
p3204
I1793
sS'are'
p3205
I3097
sS'sea'
p3206
I3098
sS'tender'
p3207
I2471
sS'transportation'
p3208
I1988
sS'Fraser'
p3209
I3101
sS'2.6'
p3210
I3102
sS'2.5'
p3211
I3103
sS'feared'
p3212
I3104
sS'regulator'
p3213
I3105
sg17
I3106
sS'probable'
p3214
I3107
sS'Critics'
p3215
I3109
sS'guinea'
p3216
I3080
sS'attracting'
p3217
I3800
sS'currently'
p3218
I3112
sS'burner'
p3219
I3113
sS'case'
p3220
I3114
sS'pickup'
p3221
I3115
sS'Officials'
p3222
I3116
sS'various'
p3223
I3117
sS'electrical'
p3224
I3581
sS'downturn'
p3225
I1410
sS'conditions'
p3226
I3119
sS'corruption'
p3227
I3120
sS'favor'
p3228
I3458
sS'risks'
p3229
I3121
sS'available'
p3230
I3122
sS'Cambria'
p3231
I3123
sS'recently'
p3232
I3124
sS'creating'
p3233
I3125
sS'missing'
p3234
I3126
sS'targeted'
p3235
I3127
sS'dividends'
p3236
I3128
sS'Transgenic'
p3237
I3129
sS'sole'
p3238
I3130
sS'Florida'
p3239
I3131
sS'general-purpose'
p3240
I3132
sS'incident'
p3241
I3134
sS'ranked'
p3242
I3135
sS'Hollander'
p3243
I3136
sS'turning'
p3244
I2489
sS'UniFirst'
p3245
I3138
sS'African'
p3246
I3139
sS'franchise'
p3247
I3140
sS'dividend'
p3248
I3141
sS'Japanese'
p3249
I3142
sS'remaining'
p3250
I3361
sS'official'
p3251
I4726
sS'AND'
p3252
I1489
sS'both'
p3253
I3144
sS'full-time'
p3254
I173
sS'enables'
p3255
I3146
sS'improved'
p3256
I2311
sS'license'
p3257
I3148
sS'restaurant'
p3258
I3149
sS'bidder'
p3259
I3150
sS'barely'
p3260
I2550
sS'second-largest'
p3261
I3152
sS'Bloedel'
p3262
I3153
sS'foreign'
p3263
I3154
sS'Steve'
p3264
I3155
sS'sensitive'
p3265
I3156
sS'1.65'
p3266
I3157
sS'became'
p3267
I638
sS'rose'
p3268
I3160
sS'long-term'
p3269
I3161
sS'let'
p3270
I3744
sS'McEnaney'
p3271
I3163
sS'El'
p3272
I3164
sS'approve'
p3273
I3165
sS'Yet'
p3274
I3166
sS'Cotton'
p3275
I3167
sS'insurance'
p3276
I3168
sS'flies'
p3277
I2747
sS'Friday'
p3278
I3170
sS'headed'
p3279
I3171
sS'simple'
p3280
I3172
sS'loan'
p3281
I3173
sS'S-Cargo'
p3282
I2501
sS'community'
p3283
I3175
sS'Eduard'
p3284
I4539
sS'Dallas'
p3285
I3177
sS'simply'
p3286
I2546
sS'church'
p3287
I3180
sS'rural'
p3288
I4806
sS'mission'
p3289
I2702
sS'expensive'
p3290
I3182
sS'headaches'
p3291
I3183
sS'bolster'
p3292
I3184
sS'decline'
p3293
I3185
sS'Khmer'
p3294
I3186
sS'described'
p3295
I3187
sS'raise'
p3296
I1363
sS'duo'
p3297
I3189
sS'monthly'
p3298
I3190
sS'defunct'
p3299
I3191
sS'create'
p3300
I3192
sS'outstanding'
p3301
I3193
sS'political'
p3302
I3194
sS'due'
p3303
I3195
sS'strategy'
p3304
I2881
sS'rivals'
p3305
I2165
sS'Protection'
p3306
I3198
sS'Jennison'
p3307
I3199
sS'superconductor'
p3308
I3200
sS'Carl'
p3309
I3201
sS'God'
p3310
I2928
sS'Bromley'
p3311
I3606
sS'Bancorp'
p3312
I3204
sS'woke'
p3313
I3205
sS'4'
p3314
I3206
sS'firm'
p3315
I3207
sS'dialogue'
p3316
I3208
sS'partly'
p3317
I3210
sS'sending'
p3318
I3211
sS'fire'
p3319
I3212
sS'gas'
p3320
I3213
sS'precision'
p3321
I413
sS'deter'
p3322
I69
sS'fund'
p3323
I3216
sS'UNESCO'
p3324
I3217
sS'38'
p3325
I3749
sS'understand'
p3326
I993
sS'specifically'
p3327
I1652
sS'bidding'
p3328
I3221
sS'demand'
p3329
I6
sS'prices'
p3330
I3223
sS'resisted'
p3331
I479
sS'despite'
p3332
I3225
sS'second-quarter'
p3333
I28
sS'plants'
p3334
I39
sS'highest'
p3335
I4717
sS'replaces'
p3336
I46
sS'Old'
p3337
I3229
sS'look'
p3338
I3230
sS'Sidley'
p3339
I1799
sS'solid'
p3340
I3231
sS'judicial'
p3341
I3232
sS'straight'
p3342
I3233
sS'bill'
p3343
I78
sS'elections'
p3344
I603
sS'governor'
p3345
I3237
sS'Agency'
p3346
I3670
sS'pace'
p3347
I100
sS'while'
p3348
I3239
sS'3.35'
p3349
I3240
sS'match'
p3350
I4553
sS'Likewise'
p3351
I1545
sS'fun'
p3352
I3243
sS'Energy'
p3353
I3754
sS'Advancing'
p3354
I682
sS'Industries'
p3355
I3246
sS'City'
p3356
I155
sS'19.7'
p3357
I2561
sS'Italy'
p3358
I1031
sS'Sumitomo'
p3359
I169
sS'century'
p3360
I1286
sS'cents'
p3361
I3252
sS'Fingers'
p3362
I3254
sS'evident'
p3363
I4723
sS'Back'
p3364
I3757
sS'disappointing'
p3365
I389
sS'obstacle'
p3366
I220
sS'Bach'
p3367
I3758
sS'seen'
p3368
I3259
sS'Pertschuk'
p3369
I3260
sS'34'
p3370
I3759
sS'examiners'
p3371
I3262
sS'chase'
p3372
I264
sS'lengthy'
p3373
I3264
sS'Chicago-based'
p3374
I3265
sS'ample'
p3375
I4557
sS'anymore'
p3376
I3268
sS'grant'
p3377
I3269
sS'Penney'
p3378
I3270
sS'rosy'
p3379
I3272
sS'rules'
p3380
I3273
sS'virtually'
p3381
I3274
sS'widely'
p3382
I3275
sS'rejoin'
p3383
I2145
sS'9'
p3384
I3277
sS'products'
p3385
I2761
sS'advise'
p3386
I3279
sS'conflict'
p3387
I3281
sS'higher'
p3388
I3282
sS'development'
p3389
I3283
sS'About'
p3390
I2416
sS'Camp'
p3391
I3203
sS'lawyers'
p3392
I1591
sS'Then'
p3393
I1057
sS'Asia-Pacific'
p3394
I409
sS'defeat'
p3395
I3767
sS'friends'
p3396
I4793
sS'yesterday'
p3397
I3289
sS'flows'
p3398
I432
sS'alert'
p3399
I3291
sS'Itel'
p3400
I3292
sS'moment'
p3401
I3293
sS'J.C.'
p3402
I453
sS'arrived'
p3403
I457
sS'purpose'
p3404
I460
sS'robust'
p3405
I3297
sS'{'
p3406
I3769
sS'recent'
p3407
I3299
sS'Ortega'
p3408
I2674
sS'lower'
p3409
I3302
sS'turnaround'
p3410
I3724
sS'Distance'
p3411
I3304
sS'Power'
p3412
I3305
sS'older'
p3413
I3306
sS'Source'
p3414
I4306
sS'Miller'
p3415
I538
sS'alleging'
p3416
I3308
sS'anybody'
p3417
I555
sS'without'
p3418
I3310
sS'person'
p3419
I3311
sS'priced'
p3420
I3312
sS'edge'
p3421
I332
sS'services'
p3422
I2979
sS'machinery'
p3423
I3314
sS'CBS'
p3424
I3315
sS'organization'
p3425
I591
sS'clearance'
p3426
I3318
sS'rates'
p3427
I3319
sS'spend'
p3428
I3320
sS'preference'
p3429
I2151
sS'pollen'
p3430
I3321
sS'grievance'
p3431
I622
sS'one-year'
p3432
I3323
sS'junk-bond'
p3433
I2295
sS'-'
p3434
I3325
sS'polled'
p3435
I3326
sS'settlements'
p3436
I3327
sS'competitive'
p3437
I3329
sS'Virginia'
p3438
I3235
sS'distracting'
p3439
I3331
sS'adjustable'
p3440
I3332
sS'tennis'
p3441
I3333
sS'questions'
p3442
I3334
sS'world'
p3443
I2153
sS'retired'
p3444
I3336
sS'alternative'
p3445
I3337
sS'</s>'
p3446
I1
sS'conservative'
p3447
I3646
sS'timber'
p3448
I3338
sS'discipline'
p3449
I719
sS'cut'
p3450
I730
sS'helping'
p3451
I3341
sg19
I3342
sS'advanced'
p3452
I3343
sS'over-the-counter'
p3453
I744
sS'informal'
p3454
I3345
sS'advisers'
p3455
I3346
sS'workers'
p3456
I3347
sS'danger'
p3457
I3777
sS'guaranteed'
p3458
I3349
sS'attractive'
p3459
I3350
sS'exclusively'
p3460
I3351
sS'soybeans'
p3461
I3352
sS'uncertainty'
p3462
I4441
sS'internal'
p3463
I2955
sS'Christopher'
p3464
I793
sS'homeland'
p3465
I3355
sS'Berkeley'
p3466
I3356
sS'Brands'
p3467
I3357
sS'Germany'
p3468
I3358
sS'ruled'
p3469
I2158
sS'administrative'
p3470
I3360
sS'merely'
p3471
I226
sS'surprised'
p3472
I3362
sS'chairman'
p3473
I2957
sS'...'
p3474
I197
sS'complaint'
p3475
I3365
sS'bills'
p3476
I4645
sS'Last'
p3477
I851
sS'They'
p3478
I578
sS'emergency'
p3479
I3368
sS'demands'
p3480
I3369
sS'evaluate'
p3481
I865
sS'rebound'
p3482
I868
sS'Bickwit'
p3483
I3372
sS'Commons'
p3484
I3373
sS'Suisse'
p3485
I3374
sS'Air'
p3486
I3375
sS'matters'
p3487
I3376
sS'game'
p3488
I3377
sS'clout'
p3489
I3378
sS'foreigners'
p3490
I3379
sS'Campaneris'
p3491
I923
sS'bit'
p3492
I3381
sS'Or'
p3493
I3383
sS'projects'
p3494
I3384
sS'formal'
p3495
I3385
sS'stimulators'
p3496
I3386
sS'summit'
p3497
I3620
sS'anthers'
p3498
I3387
sS'Undersecretary'
p3499
I2235
sS'follows'
p3500
I1825
sS'message'
p3501
I2319
sS'separately'
p3502
I1004
sS'communications'
p3503
I3392
sS'regular'
p3504
I4356
sS'individuals'
p3505
I1013
sS'indication'
p3506
I1017
sS'400,000'
p3507
I3423
sS'popular'
p3508
I3395
sS'boxy'
p3509
I3783
sS'maquiladoras'
p3510
I3397
sS'contributions'
p3511
I4690
sS'healthy'
p3512
I3398
sS'paralyzed'
p3513
I1485
sS'circles'
p3514
I3400
sS'new-model'
p3515
I3271
sS'often'
p3516
I3402
sS'Gulf'
p3517
I3403
sS'spring'
p3518
I3404
sS'creation'
p3519
I3405
sS'some'
p3520
I1094
sS'grass-roots'
p3521
I2894
sS'3.6'
p3522
I3408
sS'3.7'
p3523
I3409
sS'3.5'
p3524
I1122
sS'prohibited'
p3525
I4637
sS'pricing'
p3526
I3411
sS'3.1'
p3527
I3412
sS"'ve"
p3528
I2167
sS'fanfare'
p3529
I3414
sS'3.8'
p3530
I3415
sS'leaders'
p3531
I3416
sS'abandon'
p3532
I2623
sS'scale'
p3533
I882
sS'Seoul'
p3534
I1291
sS'Pittsburgh'
p3535
I3420
sS'Frank'
p3536
I3421
sS'decision'
p3537
I1208
sS'though'
p3538
I1865
sS'audience'
p3539
I3424
sS'per'
p3540
I3425
sS'modest'
p3541
I1623
sS'Fund'
p3542
I1232
sS'bankruptcy-law'
p3543
I3428
sS'Massachusetts'
p3544
I1245
sS'London'
p3545
I3430
sS'Yesterday'
p3546
I4764
sS'payments'
p3547
I4585
sS'Pact'
p3548
I3432
sS'be'
p3549
I3433
sS'claimed'
p3550
I4452
sS'run'
p3551
I1297
sS'300'
p3552
I3435
sS'first-time'
p3553
I3436
sS'Its'
p3554
I2435
sS'continuing'
p3555
I3438
sS'agreement'
p3556
I3439
sS'David'
p3557
I1338
sS'aloft'
p3558
I1347
sS'step'
p3559
I3443
sS'Indianapolis'
p3560
I3793
sS'Moreover'
p3561
I3108
sS'major'
p3562
I2856
sS'abroad'
p3563
I1386
sS'August'
p3564
I1379
sS'pipeline'
p3565
I3450
sS'goods'
p3566
I1407
sS'francs'
p3567
I3523
sS'zip'
p3568
I3452
sS'anything'
p3569
I3453
sS'cigarette'
p3570
I2972
sS'exaggerated'
p3571
I3455
sS'Pont'
p3572
I3456
sS'&'
p3573
I3457
sS'Savings'
p3574
I2973
sS'remains'
p3575
I3797
sS'range'
p3576
I3461
sS'ounce'
p3577
I1455
sS'Committee'
p3578
I3463
sS'positive'
p3579
I3464
sS'Before'
p3580
I2180
sS'farmers'
p3581
I3465
sS'block'
p3582
I3466
sS'72'
p3583
I3447
sS'seeing'
p3584
I3468
sS'Stark'
p3585
I3469
sS'Eli'
p3586
I3470
sS'plenty'
p3587
I2134
sS'Stoltzman'
p3588
I3472
sS'precisely'
p3589
I4084
sS'abusive'
p3590
I1529
sS'within'
p3591
I3474
sS'retailer'
p3592
I3475
sS'steady'
p3593
I1787
sS'150-member'
p3594
I3477
sS'Everything'
p3595
I1557
sS'because'
p3596
I2902
sS'primarily'
p3597
I3481
sS'repaid'
p3598
I3482
sS'sports'
p3599
I3483
sS'Ozal'
p3600
I3484
sS'bankruptcy'
p3601
I3486
sS'canal'
p3602
I3487
sS'Composite'
p3603
I1626
sS'treated'
p3604
I3491
sS'costly'
p3605
I3249
sS'question'
p3606
I1621
sS'handles'
p3607
I2280
sS'long'
p3608
I1406
sS'ordered'
p3609
I3553
sS'Georgia-Pacific'
p3610
I1418
sS'crackdown'
p3611
I3498
sS'Unification'
p3612
I3499
sS'79'
p3613
I2984
sS'suit'
p3614
I3501
sS'Mips'
p3615
I3502
sS'grew'
p3616
I3056
sS'Ross'
p3617
I3504
sS'scared'
p3618
I4601
sS'files'
p3619
I3303
sS'considerably'
p3620
I3508
sS'plunge'
p3621
I852
sS'elsewhere'
p3622
I3510
sS'investigations'
p3623
I3511
sS'asset-backed'
p3624
I4742
sS'great'
p3625
I3748
sS'adjusting'
p3626
I1759
sS'vehicle'
p3627
I3514
sS'Attorney'
p3628
I2200
sS'goods-producing'
p3629
I3133
sS'Ms.'
p3630
I3517
sS'deductions'
p3631
I3518
sS'two-part'
p3632
I3520
sS'repeatedly'
p3633
I3521
sS'Ltd.'
p3634
I3522
sS'filed'
p3635
I1804
sS'hopes'
p3636
I1648
sS'subsidiary'
p3637
I3525
sS'line'
p3638
I3526
sS'Austin'
p3639
I3527
sS'raising'
p3640
I1829
sS'posted'
p3641
I3529
sS'GDP'
p3642
I3530
sS'Beijing'
p3643
I3531
sS'rejection'
p3644
I3532
sS'refinancing'
p3645
I3533
sS'Office'
p3646
I3534
sS'Tuesday'
p3647
I3535
sS'Alvin'
p3648
I3536
sS'Loan'
p3649
I3537
sS'goodwill'
p3650
I3538
sS'Africa'
p3651
I3539
sS'up'
p3652
I3540
sS'us'
p3653
I3541
sS'Thatcher'
p3654
I1882
sS'amendment'
p3655
I4592
sS'maturity'
p3656
I3543
sS"'re"
p3657
I1897
sS'exploration'
p3658
I1902
sS'today'
p3659
I3546
sS'planes'
p3660
I1912
sS'jumbo'
p3661
I3548
sS'ago'
p3662
I3605
sS'Florence'
p3663
I3043
sS'medical'
p3664
I1731
sS'yelled'
p3665
I3551
sS'OTC'
p3666
I3552
sS'associated'
p3667
I1395
sS'adults'
p3668
I3554
sS'furor'
p3669
I3555
sS'Perhaps'
p3670
I1976
sS'stripped'
p3671
I3557
sS'start-up'
p3672
I3558
sS'Dr.'
p3673
I3559
sS'muscles'
p3674
I3222
sS'Eventually'
p3675
I3528
sS'To'
p3676
I3562
sS'single'
p3677
I2015
sS'associates'
p3678
I2017
sS'Twins'
p3679
I3565
sS'RATES'
p3680
I3566
sS'International'
p3681
I3567
sS'rally'
p3682
I3568
sS'Voices'
p3683
I2456
sS'Manhattan'
p3684
I3570
sS'RC6280'
p3685
I2060
sS'%'
p3686
I3572
sS'May'
p3687
I3479
sS'employment'
p3688
I1531
sS'Venezuela'
p3689
I3575
sS'peace'
p3690
I3576
sS'A.'
p3691
I3577
sS'These'
p3692
I3578
sS'Mac'
p3693
I2127
sS'reputation'
p3694
I3580
sS'Mae'
p3695
I1944
sS'income'
p3696
I217
sS'department'
p3697
I3583
sS'Man'
p3698
I3584
sS'responded'
p3699
I3617
sS'TNT'
p3700
I1136
sS'voters'
p3701
I3251
sS'elements'
p3702
I3587
sS'Stearns'
p3703
I3588
sS'calculating'
p3704
I1046
sS'provided'
p3705
I3630
sS'testified'
p3706
I3824
sS're-election'
p3707
I3592
sS'after-tax'
p3708
I3593
sS'problems'
p3709
I3594
sS'prepared'
p3710
I3595
sS'regulations'
p3711
I3028
sS'generated'
p3712
I2247
sS'Sentra'
p3713
I3598
sS'Canonie'
p3714
I3599
sS'allowing'
p3715
I2259
sS'hair'
p3716
I4604
sS'missile'
p3717
I3827
sS'sides'
p3718
I3603
sS'mood'
p3719
I3604
sS'rallied'
p3720
I1056
sS'night'
p3721
I1027
sS'land'
p3722
I3607
sS'methodologies'
p3723
I3608
sS'Ad'
p3724
I3609
sS'vice'
p3725
I3610
sS'Zapfel'
p3726
I3611
sS'age'
p3727
I3612
sS'vehicles'
p3728
I2327
sS'backed'
p3729
I3614
sS'bankers'
p3730
I81
sS'departments'
p3731
I2651
sS'An'
p3732
I2075
sS'leftist'
p3733
I3618
sS'As'
p3734
I3619
sS'implied'
p3735
I2360
sS'Scott'
p3736
I2363
sS'Asian'
p3737
I2366
sS'Geiger'
p3738
I3623
sS'far'
p3739
I3624
sS'international'
p3740
I3625
sS'Soviets'
p3741
I3626
sS'Oakland'
p3742
I486
sS'requires'
p3743
I3628
sS'having'
p3744
I3629
sS'once'
p3745
I2402
sS'portraying'
p3746
I3632
sS'partial'
p3747
I3633
sS'fixed-rate'
p3748
I3634
sS'unemployment'
p3749
I3635
sS'issued'
p3750
I3636
sS'resistance'
p3751
I1992
sS'tested'
p3752
I2602
sS'However'
p3753
I3328
sS'Pell'
p3754
I3640
sS'advice'
p3755
I3641
sS'broader'
p3756
I3642
sS'served'
p3757
I3643
sS'Department'
p3758
I2483
sS'attracted'
p3759
I1765
sS'adjustment'
p3760
I1692
sS'15,000'
p3761
I3647
sS'centers'
p3762
I3648
sS'issues'
p3763
I3649
sS'rigidity'
p3764
I2506
sS'compact'
p3765
I3651
sS'demonstrators'
p3766
I4621
sS'McLaughlin'
p3767
I3653
sS'Someone'
p3768
I3654
sS'Business'
p3769
I3655
sS'Means'
p3770
I3656
sS'similar'
p3771
I3549
sS'concerned'
p3772
I3657
sS'young'
p3773
I3658
sS'send'
p3774
I3659
sS'appointed'
p3775
I3835
sS'intensive'
p3776
I3660
sS'Union'
p3777
I623
sS'does'
p3778
I4623
sS'UAL'
p3779
I3662
sS'Swanson'
p3780
I3663
sS'stable'
p3781
I3382
sS'quarterly'
p3782
I1891
sS'officials'
p3783
I4308
sS'include'
p3784
I2616
sS'friendly'
p3785
I3667
sS'indicating'
p3786
I1602
sS'Steel'
p3787
I3669
sS'probe'
p3788
I626
sS'Young'
p3789
I3476
sS'organizations'
p3790
I1416
sS'continues'
p3791
I3673
sS'Mrs.'
p3792
I3674
sS'wave'
p3793
I3675
sS'putting'
p3794
I3676
sS'promise'
p3795
I4669
sS'Not'
p3796
I3665
sS'specific'
p3797
I3677
sS'drinking'
p3798
I3678
sS'continued'
p3799
I3679
sS'minerals'
p3800
I3680
sS'Markus'
p3801
I3582
sS'entire'
p3802
I3681
sS'Unificationist'
p3803
I4377
sS'litigation'
p3804
I4233
sS'sparked'
p3805
I2821
sS'Wells'
p3806
I4765
sS'meant'
p3807
I3683
sS'positions'
p3808
I3684
sS'notes'
p3809
I2774
sS'fewer'
p3810
I3686
sS'8.95'
p3811
I2796
sS'Defense'
p3812
I3689
sS'Morgan'
p3813
I4789
sS'car'
p3814
I1421
sS'Tomash'
p3815
I3690
sS'challenge'
p3816
I3844
sS'hiding'
p3817
I4641
sS'Bankruptcy'
p3818
I3693
sS'concluded'
p3819
I2855
sS'Index'
p3820
I3695
sS'averaged'
p3821
I3696
sS'Martin'
p3822
I1474
sS'350'
p3823
I4507
sS'Marks'
p3824
I3698
sS'13/16'
p3825
I4615
sS'Long'
p3826
I2316
sS'licensed'
p3827
I3700
sS'Hutton'
p3828
I3701
sS'Equipment'
p3829
I3702
sS'State'
p3830
I3703
sS'picked'
p3831
I3704
sS'growing'
p3832
I2757
sS'nests'
p3833
I3707
sS'makers'
p3834
I3708
sS'index'
p3835
I3709
sS'staffers'
p3836
I3710
sS'software'
p3837
I4659
sS'plays'
p3838
I2980
sS'underwriters'
p3839
I3266
sS'rate'
p3840
I3713
sS'giving'
p3841
I3714
sS'several'
p3842
I3715
sS'probably'
p3843
I4269
sS'fat'
p3844
I3717
sS'Alan'
p3845
I3019
sS'practices'
p3846
I3719
sS'access'
p3847
I3026
sS'consistently'
p3848
I3721
sS'waiting'
p3849
I3722
sS'clipboard'
p3850
I3037
sS'eating'
p3851
I3434
sS'capital'
p3852
I3052
sS'crossed'
p3853
I3850
sS';'
p3854
I3063
sS'America'
p3855
I3728
sS'Hong'
p3856
I4438
sS'exercise'
p3857
I3729
sS'thin'
p3858
I3851
sS'body'
p3859
I3731
sS'Poor'
p3860
I3732
sS'ensure'
p3861
I3733
sS'led'
p3862
I3734
sS'chose'
p3863
I2385
sS'stance'
p3864
I3736
sS'exchange'
p3865
I3737
sS'respectively'
p3866
I3738
sS'pushing'
p3867
I3739
sS'commercial'
p3868
I3740
sS'amounts'
p3869
I3573
sS'jointly'
p3870
I3742
sS'resources'
p3871
I3668
sS'its'
p3872
I2713
sS'Green'
p3873
I3162
sS'making'
p3874
I3745
sS'issuing'
p3875
I4175
sS'Boyer'
p3876
I3746
sS'extreme'
p3877
I3747
sS'39'
p3878
I3214
sS'engage'
p3879
I3218
sS'Mixte'
p3880
I3750
sS'Chinese'
p3881
I3751
sS'33'
p3882
I1910
sS'32'
p3883
I924
sS'31'
p3884
I3244
sS'30'
p3885
I2188
sS'37'
p3886
I3756
sS'27.1'
p3887
I3209
sS'35'
p3888
I3258
sS'leaving'
p3889
I3261
sS'engine'
p3890
I3760
sS'suggests'
p3891
I2413
sS'Vietnam'
p3892
I3763
sS'Sachs'
p3893
I2147
sS'insulin'
p3894
I3765
sS'Motor'
p3895
I3766
sS'Big'
p3896
I1790
sS'opinion'
p3897
I3768
sS'residents'
p3898
I3298
sS'gene'
p3899
I3770
sS'makes'
p3900
I3771
sS'maker'
p3901
I3772
sS'involves'
p3902
I3773
sS'Economic'
p3903
I3313
sS'named'
p3904
I3774
sS'debts'
p3905
I3775
sS'Brothers'
p3906
I3015
sS'deputy'
p3907
I3348
sS'win'
p3908
I3778
sS'Robert'
p3909
I2255
sS'7.55'
p3910
I3780
sS'baskets'
p3911
I977
sS'41.60'
p3912
I3782
sS'decrease'
p3913
I3396
sS'privately'
p3914
I1684
sS'motor'
p3915
I2461
sS'Brazilian'
p3916
I3786
sS'Fla.'
p3917
I3787
sS'apply'
p3918
I2507
sS'complex'
p3919
I3789
sS'recapitalization'
p3920
I4097
sS'standing'
p3921
I3791
sS'Trifari'
p3922
I4252
sS'use'
p3923
I1469
sS'fee'
p3924
I3444
sS'from'
p3925
I3794
sS'consumption'
p3926
I2140
sS'failed'
p3927
I3035
sS'142.85'
p3928
I3460
sS'illegal'
p3929
I3798
sS'Hun'
p3930
I3799
sS'live'
p3931
I3495
sS'flat'
p3932
I3801
sS'next'
p3933
I3802
sS'few'
p3934
I3803
sS'examination'
p3935
I482
sS'Fe'
p3936
I3806
sS'year-ago'
p3937
I2267
sS'timetable'
p3938
I4137
sS'themselves'
p3939
I3809
sS'panel'
p3940
I3810
sS'USX'
p3941
I4471
sS'historically'
p3942
I3542
sS'reflects'
p3943
I3812
sS'sort'
p3944
I3813
sS'bureaucracy'
p3945
I3814
sS'Lane'
p3946
I3815
sS'1/4'
p3947
I3816
sS'journalists'
p3948
I2203
sS'Mulford'
p3949
I3818
sS'Appropriations'
p3950
I3819
sS'started'
p3951
I3820
sS'trait'
p3952
I204
sS'inclined'
p3953
I3822
sS'equity'
p3954
I3040
sS'benchmark'
p3955
I3591
sS'Wednesday'
p3956
I3825
sS'S&P'
p3957
I3826
sS'1/8'
p3958
I3602
sS'dealings'
p3959
I3829
sS'S&L'
p3960
I3830
sS'guarantees'
p3961
I3359
sS'sharply'
p3962
I3832
sS'8'
p3963
I3833
sS'filings'
p3964
I3735
sS'compromise'
p3965
I2887
sS'DeSoto'
p3966
I2586
sS'boards'
p3967
I3836
sS'majority'
p3968
I3838
sS'account'
p3969
I3839
sS'excellent'
p3970
I3840
sS'animals'
p3971
I3841
sS'announcing'
p3972
I3842
sS'this'
p3973
I3843
sS'ride'
p3974
I3691
sS'stations'
p3975
I3255
sS'stroke'
p3976
I3846
sS'recession'
p3977
I3848
sS'anywhere'
p3978
I3849
sS'obvious'
p3979
I3726
sS'publications'
p3980
I3730
sS'uses'
p3981
I3295
sS'December'
p3982
I3852
sS'industrial'
p3983
I3853
sS'meet'
p3984
I3854
sS'closing'
p3985
I3855
sS'drops'
p3986
I3856
sS'Technology'
p3987
I3600
sS'F.'
p3988
I3857
sS'dropped'
p3989
I3858
sS'control'
p3990
I3859
sS'Prime'
p3991
I3847
sS'Israeli'
p3992
I3861
sS'120-day'
p3993
I3790
sS'Northern'
p3994
I3863
sS'do'
p3995
I3864
sS'process'
p3996
I3865
sS'discussed'
p3997
I3866
sS'proportions'
p3998
I3867
sS'0.2'
p3999
I3868
sS'0.5'
p4000
I3869
sS'purposes'
p4001
I3870
sS'pieces'
p4002
I3871
sS'high'
p4003
I3872
sS'effectively'
p4004
I3873
sS'Mr.'
p4005
I3874
sS'reserves'
p4006
I3875
sS'pulling'
p4007
I3876
sS'recognized'
p4008
I3877
sS'employs'
p4009
I2163
sS'sought'
p4010
I3880
sS'Party'
p4011
I3879
sS'voice'
p4012
I2210
sS'calculated'
p4013
I3550
sS'Laidig'
p4014
I3884
sS'stadiums'
p4015
I2880
sS'sit'
p4016
I3886
sS'protect'
p4017
I3887
sS'six'
p4018
I2080
sS'information'
p4019
I3889
sS'arrangement'
p4020
I3890
sS'regions'
p4021
I748
sS'responsibilities'
p4022
I3892
sS'Paper'
p4023
I3893
sS'animal'
p4024
I3894
sS'instead'
p4025
I3895
sS'Walter'
p4026
I3896
sS'panic'
p4027
I594
sS'butterfat'
p4028
I3898
sS'airline'
p4029
I2251
sS'watch'
p4030
I3900
sS'Nissan'
p4031
I3901
sS'testimony'
p4032
I3902
sS'Red'
p4033
I3585
sS'3'
p4034
I1896
sS'Domenici'
p4035
I2698
sS'maturities'
p4036
I3885
sS'Terms'
p4037
I2479
sS'engineering'
p4038
I3563
sS'eyes'
p4039
I3906
sS'owns'
p4040
I4437
sS'physical'
p4041
I3907
sS'balloonists'
p4042
I4393
sS'light'
p4043
I776
sS'drafting'
p4044
I4674
sS'counter'
p4045
I3909
sS'lines'
p4046
I3910
sS'Community'
p4047
I3912
sS'One'
p4048
I3913
sS'Oct.'
p4049
I3914
sS'chief'
p4050
I3915
sS'Tennessee'
p4051
I1989
sS'allow'
p4052
I3917
sS'Gramm-Rudman'
p4053
I3111
sS'looking'
p4054
I1594
sS'divided'
p4055
I1451
sS'3/4'
p4056
I3922
sS'Schramm'
p4057
I3923
sS'holds'
p4058
I3924
sS'soggy'
p4059
I3925
sS'theft'
p4060
I3926
sS'producer'
p4061
I3927
sS'institutional'
p4062
I3928
sS'manufactured'
p4063
I3929
sS'taxpayer'
p4064
I2721
sS'Smith'
p4065
I3931
sS'produced'
p4066
I3932
sS'growers'
p4067
I3933
sS'own'
p4068
I4321
sS'including'
p4069
I3935
sS'directs'
p4070
I3936
sS'135'
p4071
I3937
sS'during'
p4072
I3061
sS'permission'
p4073
I3888
sS'protests'
p4074
I3940
sS'year-earlier'
p4075
I3941
sS'badges'
p4076
I3942
sS'industries'
p4077
I3943
sS'delay'
p4078
I3891
sS'negotiated'
p4079
I3945
sS'soft-drink'
p4080
I3062
sS'Exchange'
p4081
I3947
sS'Saatchi'
p4082
I3948
sS'ships'
p4083
I3949
sS'labor'
p4084
I3950
sS'meantime'
p4085
I3951
sS'newsprint'
p4086
I3952
sS'willing'
p4087
I3953
sS'stalled'
p4088
I3954
sS'covered'
p4089
I3955
sS'holiday'
p4090
I2760
sS'More'
p4091
I3958
sS'pending'
p4092
I3959
sS'crash'
p4093
I3960
sS'greater'
p4094
I3961
sS'auto'
p4095
I3962
sS'practice'
p4096
I3964
sS'earn'
p4097
I3966
sS'Herbert'
p4098
I3967
sS'cutting'
p4099
I3968
sS'courtroom'
p4100
I3969
sS'hands'
p4101
I3970
sS'front'
p4102
I3971
sS'Sony'
p4103
I3118
sS'assets'
p4104
I3973
sS'investor'
p4105
I3974
sS'fled'
p4106
I2814
sS'capital-gains'
p4107
I3976
sS'Tator'
p4108
I3068
sS'Guber-Peters'
p4109
I3977
sS'Supreme'
p4110
I3978
sS'fees'
p4111
I3979
sS'San'
p4112
I3980
sS'Sam'
p4113
I3981
sS'spinal'
p4114
I3982
sS'Roger'
p4115
I3983
sS'warned'
p4116
I3489
sS'countries'
p4117
I3985
sS'World'
p4118
I4418
sS'identified'
p4119
I3986
sS'Israel'
p4120
I2044
sS'merge'
p4121
I3988
sS'Yetnikoff'
p4122
I3989
sS"O'Kicki"
p4123
I3990
sS'fields'
p4124
I1946
sS'references'
p4125
I2231
sS'Fed'
p4126
I3993
sS'stock'
p4127
I3899
sS'eases'
p4128
I3995
sS'E.'
p4129
I3996
sS'dismissing'
p4130
I3997
sS'Statistics'
p4131
I3998
sS'From'
p4132
I3999
sS'Network'
p4133
I4000
sS'doing'
p4134
I4001
sS'Mediterranean'
p4135
I4002
sS'Balloon'
p4136
I4003
sS'lawful'
p4137
I2934
sS'700'
p4138
I4005
sS'related'
p4139
I3692
sS'society'
p4140
I4007
sS'designer'
p4141
I1465
sS'variety'
p4142
I4502
sS'Treasury'
p4143
I4009
sS'dollar-denominated'
p4144
I4010
sS'our'
p4145
I4011
sS'80'
p4146
I1924
sS'salesman'
p4147
I4013
sS'IFI'
p4148
I4014
sS'special'
p4149
I4015
sS'85'
p4150
I1565
sS'giant'
p4151
I4017
sS"'"
p4152
I4018
sS'entertainment'
p4153
I4019
sS'Corp.'
p4154
I4773
sS'dismissal'
p4155
I4020
sS'bad'
p4156
I4021
sS'Genentech'
p4157
I4022
sS'strokes'
p4158
I1467
sS'rise'
p4159
I4024
sS'China'
p4160
I4025
sS'negotiable'
p4161
I4676
sS'charge'
p4162
I3779
sS'electronics'
p4163
I54
sS'intervention'
p4164
I4028
sS'supports'
p4165
I60
sS'red'
p4166
I67
sS'thrifts'
p4167
I4031
sS'disclose'
p4168
I4032
sS'shut'
p4169
I4033
sS'Kakita'
p4170
I4034
sS'Meek'
p4171
I4036
sS'This'
p4172
I4037
sS'Judicial'
p4173
I107
sS'troops'
p4174
I3449
sS'Fresca'
p4175
I4680
sS'Rubendall'
p4176
I4041
sS'ban'
p4177
I4042
sS'completely'
p4178
I139
sS'2.50'
p4179
I4044
sS'tied'
p4180
I3903
sS'latest'
p4181
I4513
sS'early'
p4182
I3301
sS'Senator'
p4183
I4048
sS'reporters'
p4184
I3060
sS'business'
p4185
I3712
sS'additional'
p4186
I4683
sS'Directorate'
p4187
I4052
sS'allies'
p4188
I4053
sS'Nabisco'
p4189
I4039
sS'afternoon'
p4190
I2845
sS'dubbed'
p4191
I4055
sS'Nikkei'
p4192
I4056
sS'recipes'
p4193
I1537
sS'area'
p4194
I2278
sS'diminished'
p4195
I4059
sS'Lawson'
p4196
I4004
sS'times'
p4197
I243
sS'counterpart'
p4198
I4062
sS'riding'
p4199
I4251
sS'length'
p4200
I4063
sS'pigs'
p4201
I3904
sS'retain'
p4202
I4065
sS'secretary'
p4203
I688
sS'stimulate'
p4204
I4067
sS'destruction'
p4205
I4492
sS'degree'
p4206
I4068
sS'plastics'
p4207
I4069
sS'succeeds'
p4208
I4070
sS'third'
p4209
I4071
sS'Review'
p4210
I4072
sS'2,000'
p4211
I345
sS'Administration'
p4212
I347
sS'unsupported'
p4213
I355
sS'alleged'
p4214
I4035
sS'improving'
p4215
I4077
sS'galvanized'
p4216
I4078
sS'submit'
p4217
I3496
sS'lagging'
p4218
I4080
sS'ties'
p4219
I3905
sS'owner'
p4220
I4082
sS'Sventek'
p4221
I391
sS'1989'
p4222
I2182
sS'quality'
p4223
I4085
sS'owning'
p4224
I412
sS'Ries'
p4225
I4087
sS'ballot'
p4226
I4610
sS'vetoed'
p4227
I4088
sS'management'
p4228
I4089
sS'North'
p4229
I436
sS'Cohen'
p4230
I4091
sS'Citicorp'
p4231
I2282
sS'bears'
p4232
I4093
sS'constitution'
p4233
I3685
sS'achieved'
p4234
I4094
sS'system'
p4235
I4095
sS'adopted'
p4236
I472
sS'Coast'
p4237
I248
sS'priority'
p4238
I4098
sS'their'
p4239
I485
sS'attack'
p4240
I4100
sS'Coates'
p4241
I4101
sS'slide'
p4242
I4619
sS'ton'
p4243
I4102
sS'perfectly'
p4244
I4103
sS'emphasized'
p4245
I4486
sS'final'
p4246
I4104
sS'Association'
p4247
I4105
sS'back'
p4248
I3407
sS'enforcement'
p4249
I4107
sS'Lincoln'
p4250
I4108
sS'lot'
p4251
I4109
sS'big'
p4252
I4110
sS'shelf'
p4253
I4111
sS'doomed'
p4254
I384
sS'exactly'
p4255
I584
sS'Sider'
p4256
I3389
sS'anti-apartheid'
p4257
I4115
sS'environmental'
p4258
I4116
sS'chemicals'
p4259
I4117
sS'reflecting'
p4260
I4118
sS'manipulation'
p4261
I4120
sS'branches'
p4262
I4121
sS'overwhelming'
p4263
I635
sS'discretionary'
p4264
I4123
sS'steel'
p4265
I4124
sS'loved'
p4266
I4125
sS'colleagues'
p4267
I4126
sS'hearings'
p4268
I662
sS'bid'
p4269
I4128
sS'Metropolitan'
p4270
I4129
sS'minister'
p4271
I2405
sS'culture'
p4272
I3094
sS'Mass'
p4273
I4130
sS'submitted'
p4274
I4131
sS'claim'
p4275
I4132
sS'compensation'
p4276
I709
sS'individual'
p4277
I3096
sS'11/16'
p4278
I4522
sS'bind'
p4279
I3908
sS'visited'
p4280
I4136
sS'Peter'
p4281
I740
sS'steep'
p4282
I4139
sS'Imperial'
p4283
I4446
sS'creditors'
p4284
I4140
sS'result'
p4285
I4141
sS'1.4'
p4286
I4142
sS'imaginative'
p4287
I760
sS'1.6'
p4288
I4144
sS'1.7'
p4289
I4145
sS'1.1'
p4290
I4146
sS'1.2'
p4291
I1443
sS'1.3'
p4292
I4148
sS'unchanged'
p4293
I4149
sS'partnership'
p4294
I4150
sS'1.8'
p4295
I4151
sS'seaborne'
p4296
I4152
sS'comfortable'
p4297
I4153
sS'corrupt'
p4298
I2735
sS'Other'
p4299
I4155
sS'Others'
p4300
I3823
sS'unlikely'
p4301
I4156
sS'38.5'
p4302
I4157
sS'Metromedia'
p4303
I558
sS'close'
p4304
I3100
sS'turn'
p4305
I4160
sS'border'
p4306
I2724
sS'linked'
p4307
I837
sS'viewed'
p4308
I4163
sS'Pao'
p4309
I4164
sS'Development'
p4310
I4165
sS'instrumentation'
p4311
I4166
sS'Oil'
p4312
I880
sS'22.8'
p4313
I4168
sS'brokers'
p4314
I4808
sS'Goldman'
p4315
I906
sS'After'
p4316
I543
sS'able'
p4317
I4171
sS'Thanksgiving'
p4318
I3053
sS'arm'
p4319
I4173
sS'instance'
p4320
I4174
sS'concerns'
p4321
I2008
sS'declined'
p4322
I4176
sS'which'
p4323
I947
sS'equaling'
p4324
I4178
sS'truck'
p4325
I4179
sS'2.4'
p4326
I4181
sS'Pierce'
p4327
I4182
sS'beyond'
p4328
I2793
sS'agenda'
p4329
I4184
sS'combat'
p4330
I2457
sS'collaboration'
p4331
I4187
sS'who'
p4332
I1023
sS'accountants'
p4333
I4119
sS'useful'
p4334
I4190
sS'eight'
p4335
I4191
sS'but'
p4336
I4708
sS'preliminary'
p4337
I4193
sS'sedan'
p4338
I1064
sS'Treaty'
p4339
I4196
sS'expired'
p4340
I4197
sS'payment'
p4341
I1026
sS'Pa.'
p4342
I4199
sS'Reserve'
p4343
I4200
sS'so-called'
p4344
I4201
sS'Microsoft'
p4345
I4640
sS'consequences'
p4346
I1112
sS'bargaining'
p4347
I3494
sS'sweeping'
p4348
I2750
sS'nobody'
p4349
I4204
sS'Ultimately'
p4350
I3169
sS'Some'
p4351
I83
sS'MCA'
p4352
I4207
sS'counted'
p4353
I3921
sS'looked'
p4354
I1151
sS'N.V.'
p4355
I4210
sS'proceedings'
p4356
I4211
sS'construction'
p4357
I4712
sS'mechanical'
p4358
I2381
sS'normally'
p4359
I1195
sS'Saturday'
p4360
I4215
sS'fact'
p4361
I4216
sS'goals'
p4362
I4217
sS'impression'
p4363
I1215
sS'emerging'
p4364
I4219
sS'Blair'
p4365
I4220
sS'chances'
p4366
I1236
sS'agreed'
p4367
I4222
sS'sent'
p4368
I2621
sS'Chemical'
p4369
I4224
sS'destroy'
p4370
I1755
sS'Al'
p4371
I3615
sS'Under'
p4372
I4226
sS'portfolio'
p4373
I4227
sS'fear'
p4374
I4228
sS'feat'
p4375
I1308
sS'610'
p4376
I2668
sS'decade'
p4377
I4231
sS'staff'
p4378
I1867
sS'answer'
p4379
I2647
sS'bottling'
p4380
I1325
sS'promote'
p4381
I4236
sS'grabbed'
p4382
I1336
sS'earned'
p4383
I1349
sS'holder'
p4384
I4239
sS'('
p4385
I4240
sS'specified'
p4386
I4241
sS'fans'
p4387
I4242
sS'controls'
p4388
I4243
sS'should'
p4389
I4244
sS'terminal'
p4390
I4245
sS'loafers'
p4391
I4246
sS'bases'
p4392
I1390
sS'candidates'
p4393
I306
sS'York'
p4394
I1397
sS'employee'
p4395
I4250
sS'employed'
p4396
I1409
sS'he'
p4397
I4720
sS'local'
p4398
I450
sS'secretaries'
p4399
I4253
sS'nonunion'
p4400
I3493
sS'Coke'
p4401
I4255
sS'regularly'
p4402
I364
sS'move'
p4403
I3930
sS'means'
p4404
I1452
sS'beat'
p4405
I4258
sS'Appleyard'
p4406
I1457
sS'overall'
p4407
I4260
sS'prohibition'
p4408
I4261
sS'120'
p4409
I4262
sS'joint'
p4410
I4263
sS'122'
p4411
I4264
sS'made'
p4412
I1490
sS'Newport'
p4413
I4266
sS'125'
p4414
I4267
sS'joins'
p4415
I1501
sS'deputies'
p4416
I2829
sS'timing'
p4417
I3808
sS'tactics'
p4418
I4722
sS'THE'
p4419
I4271
sS'argues'
p4420
I4272
sS'procedures'
p4421
I4273
sS'Once'
p4422
I4275
sS'following'
p4423
I3743
sS'processes'
p4424
I4277
sS'amid'
p4425
I2184
sS'committees'
p4426
I4279
sS'initial'
p4427
I3821
sS'trucks'
p4428
I2679
sS'course'
p4429
I1507
sS'Sullivan'
p4430
I1560
sS'approach'
p4431
I4284
sS'areas'
p4432
I4285
sS'names'
p4433
I3784
sS'taxes'
p4434
I4286
sS'teams'
p4435
I3072
sS'street-corner'
p4436
I4288
sS'stuff'
p4437
I4289
sS'Both'
p4438
I3364
sS'Jones'
p4439
I3711
sS'insist'
p4440
I3440
sS'wholesale'
p4441
I4292
sS'taxed'
p4442
I4293
sS'fixed'
p4443
I4294
sS'view'
p4444
I1315
sS'Burnham'
p4445
I4298
sS'adverse'
p4446
I4464
sS'temporarily'
p4447
I4299
sS'accepted'
p4448
I4300
sS'acquired'
p4449
I4301
sS'national'
p4450
I4302
sS'8.63'
p4451
I4303
sS'manufacture'
p4452
I3507
sS'Traders'
p4453
I4305
sS'mentioned'
p4454
I3939
sS'RATE'
p4455
I4307
sS'computer'
p4456
I3488
sS'usefulness'
p4457
I1719
sS'enhanced'
p4458
I1724
sS'agricultural'
p4459
I4311
sS'operated'
p4460
I4312
sS'audits'
p4461
I1740
sS'Marunouchi'
p4462
I4314
sS'expects'
p4463
I4315
sS'White'
p4464
I4316
sS'puts'
p4465
I4647
sS'Wisconsin'
p4466
I4317
sS'attempting'
p4467
I2179
sS'apparently'
p4468
I3492
sS'2.25'
p4469
I4320
sS'Britain'
p4470
I4730
sS'brunt'
p4471
I4323
sS'forest-products'
p4472
I4324
sS'discounts'
p4473
I2950
sS'state'
p4474
I3519
sg29
I3503
sS'closed'
p4475
I4328
sS'routine'
p4476
I4329
sS'tens'
p4477
I1845
sS'nuclear'
p4478
I4319
sS'July'
p4479
I1850
sS'Republican'
p4480
I4333
sS'frustrated'
p4481
I4334
sS'sold'
p4482
I4335
sS'speed'
p4483
I3110
sS'bought'
p4484
I4337
sS'comparable'
p4485
I1873
sS'attention'
p4486
I4339
sS'Sen.'
p4487
I4340
sS'ability'
p4488
I4341
sS'opening'
p4489
I4342
sS'importance'
p4490
I1895
sS'single-A-2'
p4491
I4344
sS'court'
p4492
I2648
sS'Hartt'
p4493
I4345
sS'agencies'
p4494
I4346
sS'interfere'
p4495
I4347
sS'efficiency'
p4496
I4348
sS'job'
p4497
I4349
sS'takeover'
p4498
I4350
sS'acquisitions'
p4499
I2678
sS'key'
p4500
I4351
sS'calling'
p4501
I4287
sS'less'
p4502
I4517
sS'approval'
p4503
I1962
sS'lawsuit'
p4504
I1973
sS'problem'
p4505
I4736
sS'declining'
p4506
I2685
sS'thumb'
p4507
I1517
sS'association'
p4508
I2755
sS'hits'
p4509
I4359
sS'figured'
p4510
I4360
sS'defense'
p4511
I4134
sS'limits'
p4512
I4361
sS'always'
p4513
I2763
sS'career'
p4514
I4362
sS'minutes'
p4515
I4738
sS'taking'
p4516
I4363
sS'equal'
p4517
I3705
sS'minds'
p4518
I2036
sS'pulp'
p4519
I4366
sS'liquidating'
p4520
I2052
sS'succeed'
p4521
I4368
sS'grain'
p4522
I474
sS'heart'
p4523
I4370
sS'scuttle'
p4524
I3137
sS'Diego'
p4525
I3024
sS'adjusted'
p4526
I4372
sS'reacting'
p4527
I1520
sS'opposition'
p4528
I4373
sS'Her'
p4529
I4374
sS'124,875'
p4530
I4375
sS'ca'
p4531
I4376
sS'resulting'
p4532
I3278
sS'wonder'
p4533
I3828
sS'CIA'
p4534
I4741
sS'packaging'
p4535
I2160
sS'Los'
p4536
I4381
sS'Finally'
p4537
I3014
sS'maximize'
p4538
I4383
sS'service-industry'
p4539
I4038
sS'clash'
p4540
I4185
sS'table'
p4541
I4384
sS'Keeping'
p4542
I4385
sS'Temple'
p4543
I4386
sS'Interest'
p4544
I4387
sS'600'
p4545
I4388
sS'8.1'
p4546
I4389
sS'pound'
p4547
I3248
sS'Rewards'
p4548
I156
sS'Muramatsu'
p4549
I4392
sS'remarkable'
p4550
I3178
sS'exposure'
p4551
I4796
sS'addition'
p4552
I4394
sS'commodities'
p4553
I4395
sS'trademark'
p4554
I4396
sS'ended'
p4555
I4282
sS'expressed'
p4556
I3718
sS'arbitrator'
p4557
I4081
sS'permanent'
p4558
I4398
sS'agreements'
p4559
I4399
sS'Colorado'
p4560
I1704
sS'indicators'
p4561
I4401
sS'proposal'
p4562
I4402
sS'2001'
p4563
I4403
sS'Toronto'
p4564
I4404
sS'legislature'
p4565
I3143
sS'Exxon'
p4566
I2339
sS'controlled'
p4567
I4407
sS'Center'
p4568
I4408
sS'powerful'
p4569
I4074
sS'Among'
p4570
I839
sS'am'
p4571
I2333
sS'sufficient'
p4572
I4411
sS'prospects'
p4573
I3145
sS'scrutiny'
p4574
I493
sS'Paragould'
p4575
I4414
sS'Benson'
p4576
I4415
sS'ensuring'
p4577
I4416
sS'deep'
p4578
I4417
sS'suspension'
p4579
I1526
sS'smoking'
p4580
I2422
sS'general'
p4581
I4420
sS'Navigation'
p4582
I4421
sS'present'
p4583
I4422
sS'And'
p4584
I4423
sS'Sept.'
p4585
I2522
sS'bipartisan'
p4586
I2576
sS'Force'
p4587
I4426
sS'survey'
p4588
I3764
sS'dictation'
p4589
I3862
sS'need'
p4590
I4159
sS'appropriations'
p4591
I4429
sS'appearance'
p4592
I2477
sS'examine'
p4593
I4431
sS'value'
p4594
I4432
sS'General'
p4595
I4433
sS'Gen-Probe'
p4596
I3284
sS'Cincinnati'
p4597
I4435
sS'PLC'
p4598
I4436
sS'credit-card'
p4599
I2178
sS'Taiwan'
p4600
I42
sS'immoral'
p4601
I3897
sS'at'
p4602
I2340
sS'supply'
p4603
I4440
sS'group'
p4604
I3023
sS'examiner'
p4605
I4442
sS'almost'
p4606
I4443
sS'intangible'
p4607
I4008
sS'thus'
p4608
I2597
sS'profitability'
p4609
I4445
sS'clearly'
p4610
I4162
sS'helped'
p4611
I4447
sS'Square'
p4612
I4448
sS'examined'
p4613
I4449
sS'audiences'
p4614
I2899
sS'watched'
p4615
I2344
sS'chambers'
p4616
I4158
sS'partner'
p4617
I4453
sS'You'
p4618
I4454
sS'Beach'
p4619
I4455
sS'Medical'
p4620
I4479
sS'parent'
p4621
I4456
sS'per-share'
p4622
I4457
sS'beats'
p4623
I4749
sS'perhaps'
p4624
I2045
sS'began'
p4625
I2328
sS'Hunter'
p4626
I2701
sS'Bear'
p4627
I4462
sS'proceeds'
p4628
I4753
sS'member'
p4629
I4463
sS'England'
p4630
I3380
sS'when'
p4631
I4465
sS'Computer'
p4632
I2353
sS'largest'
p4633
I2744
sS'units'
p4634
I4468
sS'party'
p4635
I4469
sS'negotiate'
p4636
I4470
sS'gets'
p4637
I2759
sS'start'
p4638
I4472
sS'difficult'
p4639
I2453
sS'Real'
p4640
I2348
sS'material'
p4641
I4475
sS'JCP'
p4642
I4476
sS'denominations'
p4643
I3418
sS'Third'
p4644
I4477
sS'4.4'
p4645
I4478
sS'Jenrette'
p4646
I2963
sS'reporting'
p4647
I2816
sS'disagree'
p4648
I2820
sS'effect'
p4649
I2823
sS'exceeds'
p4650
I4483
sS'Airport'
p4651
I4484
sS'feet'
p4652
I4485
sS'II'
p4653
I3911
sS'frequently'
p4654
I4487
sS'strategic'
p4655
I4076
sS'Mitchell'
p4656
I4489
sS'collar'
p4657
I1774
sS'expand'
p4658
I4491
sS'keep'
p4659
I4061
sS'III'
p4660
I2729
sS'Houston'
p4661
I4494
sS'peoples'
p4662
I4495
sS'transaction'
p4663
I4496
sS'off'
p4664
I4497
sS'center'
p4665
I4498
sS'fully'
p4666
I2175
sS'Senate'
p4667
I4500
sS'whole'
p4668
I4501
sS'49'
p4669
I89
sS'well'
p4670
I4503
sS'agency'
p4671
I4170
sS'States'
p4672
I2944
sS'patterns'
p4673
I4505
sS'testify'
p4674
I2803
sS'1'
p4675
I4506
sS'corporation'
p4676
I2700
sS'position'
p4677
I4508
sS'decliners'
p4678
I3159
sS'muscle'
p4679
I4510
sS'Shearson'
p4680
I2995
sS'MacMillan'
p4681
I4512
sS'usual'
p4682
I4046
sS'routinely'
p4683
I3020
sS'Using'
p4684
I4516
sS'heavily'
p4685
I1326
sS'increasingly'
p4686
I4518
sS'4.9'
p4687
I4519
sS'half'
p4688
I4520
sS'domestic'
p4689
I4521
sS'keeping'
p4690
I2615
sS'Hyundai'
p4691
I4523
sS'cheer'
p4692
I3601
sS'interim'
p4693
I4525
sS'books'
p4694
I4731
sS'Chairman'
p4695
I4526
sS'insisting'
p4696
I3972
sS'joining'
p4697
I3627
sS'tough'
p4698
I4527
sS'rest'
p4699
I3058
sS'Nicholas'
p4700
I4528
sS'Tower'
p4701
I4529
sS'mysterious'
p4702
I2585
sS'Volume'
p4703
I4767
sS'rapid'
p4704
I3480
sS'InfoCorp'
p4705
I4532
sS'ads'
p4706
I4533
sS'Far'
p4707
I1307
sS'residential'
p4708
I4536
sS'Company'
p4709
I4537
sS'drive'
p4710
I1788
sS'regulatory'
p4711
I4047
sS'deposits'
p4712
I3176
sS'bench'
p4713
I3181
sS'valuation'
p4714
I4718
sS'reasons'
p4715
I4541
sS'add'
p4716
I4542
sS'Credit'
p4717
I4543
sS'adoption'
p4718
I2807
sS'maintaining'
p4719
I520
sS'gene-splicing'
p4720
I4546
sS'Despite'
p4721
I4547
sS'executive'
p4722
I4548
sS'5'
p4723
I4549
sS'tax'
p4724
I4550
sS'warrant'
p4725
I2553
sS'By'
p4726
I4552
sS'ought'
p4727
I3241
sS'resolved'
p4728
I4554
sS'tests'
p4729
I4555
sS'sick'
p4730
I3427
sS'provisions'
p4731
I3267
sS'government'
p4732
I4558
sS'admit'
p4733
I4367
sS'protesters'
p4734
I620
sS'Drug'
p4735
I4560
sS'increases'
p4736
I4561
sS'Food'
p4737
I4562
sS'five'
p4738
I4563
sS'know'
p4739
I4564
sS'burden'
p4740
I4565
sS'press'
p4741
I4566
sS'immediately'
p4742
I4567
sS'oppression'
p4743
I4782
sS'Panhandle'
p4744
I4568
sS'prominent'
p4745
I4569
sS'loss'
p4746
I4570
sS'forcing'
p4747
I4571
sS'necessary'
p4748
I835
sS'like'
p4749
I296
sS'success'
p4750
I3388
sS'Pharmaceuticals'
p4751
I4575
sS'onerous'
p4752
I4576
sS'trillion'
p4753
I4577
sS'purchasing'
p4754
I4172
sS'appalling'
p4755
I4579
sS'extremely'
p4756
I4580
sS'admitted'
p4757
I4581
sS'loses'
p4758
I3413
sS'taxpayers'
p4759
I4583
sS'traders'
p4760
I4584
sS'clarinetist'
p4761
I3431
sS'have'
p4762
I4586
sS'lose'
p4763
I4587
sS'agents'
p4764
I3179
sS'works'
p4765
I4589
sS'soft'
p4766
I4590
sS'LONDON'
p4767
I4450
sS'accessible'
p4768
I2098
sS'parity'
p4769
I4593
sS'indications'
p4770
I4594
sS'Bouygues'
p4771
I464
sS'arbitrage'
p4772
I4596
sS'school'
p4773
I4597
sS'classical'
p4774
I4598
sS'tumble'
p4775
I4599
sS'Sun'
p4776
I4600
sS'Section'
p4777
I3505
sS'authority'
p4778
I4602
sS'Mason'
p4779
I4603
sS'certain'
p4780
I2330
sS'growth'
p4781
I4605
sS'Zayadi'
p4782
I4607
sS'recommendation'
p4783
I4608
sS'Jaguar'
p4784
I4295
sS'little'
p4785
I1662
sS'registrations'
p4786
I3987
sS'leery'
p4787
I1248
sS'recognition'
p4788
I4611
sS'Givens'
p4789
I4612
sS'trust'
p4790
I4613
sS'lead'
p4791
I4614
sS'Singapore'
p4792
I3561
sS'hot-air'
p4793
I2054
sS'broad'
p4794
I4616
sS'avoid'
p4795
I1929
sS'Sihanouk'
p4796
I4618
sS'Ifint'
p4797
I2486
sS'salaries'
p4798
I4620
sS'G-7'
p4799
I3574
sS'Shere'
p4800
I3652
sS'profitable'
p4801
I3300
sS'sustain'
p4802
I2808
sS'passion'
p4803
I4624
sS'assuming'
p4804
I3073
sS'filers'
p4805
I4626
sS'leader'
p4806
I4627
sS'?'
p4807
I4628
sS'desperate'
p4808
I4310
sS'demonstration'
p4809
I4161
sS'Kato'
p4810
I3991
sS'expansion'
p4811
I4633
sS'outlets'
p4812
I4783
sS'pressure'
p4813
I4634
sS'host'
p4814
I2543
sS'expire'
p4815
I4636
sS'Times'
p4816
I3441
sS'although'
p4817
I4638
sS'accompanied'
p4818
I3992
sS'1.8340'
p4819
I3984
sS'loans'
p4820
I4639
sS'handling'
p4821
I3228
sS'C.'
p4822
I777
sS'gained'
p4823
I4642
sS'plastic'
p4824
I4643
sS'about'
p4825
I4644
sS'Wakeman'
p4826
I4595
sS'rare'
p4827
I3834
sS'carried'
p4828
I38
sS'unwelcome'
p4829
I4482
sS'obligation'
p4830
I1615
sS'beef'
p4831
I2369
sS'shipping'
p4832
I133
sS'surge'
p4833
I4651
sS'proposals'
p4834
I2782
sS'carries'
p4835
I4653
sS'carrier'
p4836
I1276
sS'Americans'
p4837
I4655
sS'bidders'
p4838
I4313
sS'Japan'
p4839
I4656
sS'introduced'
p4840
I4657
sS'subcompact'
p4841
I1888
sS'stakes'
p4842
I2386
sS'alliance'
p4843
I3934
sS'letters'
p4844
I4661
sS'coverage'
p4845
I2380
sS'owe'
p4846
I1624
sS'Tass'
p4847
I4531
sS'warrants'
p4848
I4663
sS'nerves'
p4849
I4664
sS'Two'
p4850
I4665
sS'billions'
p4851
I4666
sS'getting'
p4852
I4648
sS'included'
p4853
I4667
sS'Internal'
p4854
I4668
sS'police'
p4855
I4353
sS'been'
p4856
I4670
sS'female'
p4857
I4671
sS'registration'
p4858
I710
sS'lovely'
p4859
I4673
sS'quickly'
p4860
I965
sS'initially'
p4861
I4675
sS'Nakamura'
p4862
I4026
sS'fired'
p4863
I1570
sS'1986'
p4864
I4678
sS'1987'
p4865
I4679
sS'1984'
p4866
I4040
sS'prudent'
p4867
I2384
sS'1982'
p4868
I3697
sS'1983'
p4869
I4051
sS'1980'
p4870
I4684
sS'1981'
p4871
I2034
sS'transfer'
p4872
I4686
sS'lagged'
p4873
I2948
sS'1988'
p4874
I2161
sS'awarded'
p4875
I987
sS'lost'
p4876
I4574
sS'dropping'
p4877
I4691
sS'try'
p4878
I3687
sS'frustration'
p4879
I4692
sS'biggest'
p4880
I4693
sS'California'
p4881
I4694
sS'breeding'
p4882
I1639
sS'9.7'
p4883
I4696
sS'pretax'
p4884
I4697
sS'jealously'
p4885
I4698
sS'function'
p4886
I4699
sS'Kleinwort'
p4887
I4509
sS'certificate'
p4888
I3795
sS'triggered'
p4889
I4702
sS'aircraft'
p4890
I4703
sS'funds'
p4891
I4704
sS'brand'
p4892
I4705
sS'Edelson'
p4893
I4706
sS'Paperboard'
p4894
I4186
sS'Detroit'
p4895
I4192
sS'volume'
p4896
I2306
sS'expected'
p4897
I4606
sS'lowered'
p4898
I4212
sS'wealthier'
p4899
I4713
sS'Liberty'
p4900
I4006
sS'money-fund'
p4901
I4715
sS'larger'
p4902
I3755
sS'squeeze'
p4903
I3716
sS'signal'
p4904
I3390
sS'crop'
p4905
I3699
sS'Conn.-based'
p4906
I2392
sS'U.S.A.'
p4907
I928
sS'Greenwich'
p4908
I3776
sS'Gold'
p4909
I4280
sS'whether'
p4910
I1257
sS'meeting'
p4911
I4725
sS'wife'
p4912
I2394
sS'smooth'
p4913
I4727
sS'signed'
p4914
I4728
sS'record'
p4915
I2665
sS'below'
p4916
I4322
sS'89'
p4917
I2664
sS'limit'
p4918
I4732
sS'ruling'
p4919
I4733
sS'invest'
p4920
I4734
sS'200,000'
p4921
I4735
sS'distribution'
p4922
I4355
sS'piece'
p4923
I4737
sS'issue'
p4924
I2812
sS'Insurance'
p4925
I1795
sS'urging'
p4926
I4740
sS'Asked'
p4927
I4198
sS'marketplace'
p4928
I4379
sS'devise'
p4929
I4743
sS'reservations'
p4930
I4400
sS'measure'
p4931
I4745
sS'Chevy'
p4932
I4746
sS'Utility'
p4933
I4747
sS'slowing'
p4934
I4748
sS'Biosource'
p4935
I3256
sS'guy'
p4936
I2832
sS'Gillette'
p4937
I4750
sS'Electronics'
p4938
I4751
sS'education'
p4939
I4752
sS'margins'
p4940
I4012
sS'Containers'
p4941
I4754
sS'Conn.'
p4942
I4755
sS'compared'
p4943
I4756
sS"'ll"
p4944
I4757
sS'contest'
p4945
I1028
sS'46'
p4946
I4759
sS'StatesWest'
p4947
I587
sS'44'
p4948
I4761
sS'45'
p4949
I4514
sS'42'
p4950
I4763
sS'detail'
p4951
I3085
sS'40'
p4952
I2002
sS'lately'
p4953
I4766
sS'Fuji'
p4954
I4530
sS'commitments'
p4955
I4768
sS'book'
p4956
I946
sS'Five'
p4957
I4770
sS'details'
p4958
I4771
sS'Besides'
p4959
I198
sS'compete'
p4960
I4804
sS'out'
p4961
I2773
sS'scandal'
p4962
I3788
sS'reckless'
p4963
I4774
sS'7/16'
p4964
I4775
sS'Hees'
p4965
I4776
sS'February'
p4966
I4777
sS'kinds'
p4967
I4778
sS'Like'
p4968
I4779
sS'completes'
p4969
I4780
sS'shredded'
p4970
I4781
sS'class'
p4971
I2275
sS'ultimately'
p4972
I2609
sS'contends'
p4973
I4784
sS'March'
p4974
I2667
sS'April'
p4975
I4786
sS'chance'
p4976
I4787
sS'income-tax'
p4977
I2074
sS'UAW'
p4978
I3946
sS'Act'
p4979
I4790
sS'Weaver'
p4980
I4791
sS'gap'
p4981
I1493
sS'disclosure'
p4982
I4180
sS'4.25'
p4983
I4794
sS'South'
p4984
I4795
sS'Stewart'
p4985
I1392
sS'RTC'
p4986
I4797
sS'using'
p4987
I3335
sS'Ashurst'
p4988
I2051
sS'factors'
p4989
I4799
sS'earthquake'
p4990
I3196
sS'rule'
p4991
I4801
sS'original'
p4992
I4802
sS'portion'
p4993
I4803
sS'students'
p4994
I4622
sS'Cambodian'
p4995
I398
sS'biotechnology'
p4996
I337
sS'processors'
p4997
I2649
sS'defend'
p4998
I4807
sS'representative'
p4999
I3220
ssS'action_dict'
p5000
(dp5001
g182
I80
sg169
I67
sg150
I48
sg157
I55
sg127
I25
sg180
I78
sg173
I71
sg175
I73
sg125
I23
sg144
I42
sg154
I52
sg123
I21
sg156
I54
sg117
I15
sg146
I44
sg128
I26
sg135
I33
sg192
I90
sg178
I76
sg133
I31
sg187
I85
sg185
I83
sg110
I8
sg106
I4
sg191
I89
sg174
I72
sg131
I29
sg158
I56
sg166
I64
sg188
I86
sg142
I40
sg120
I18
sg183
I81
sg104
I2
sg130
I28
sg108
I6
sg122
I20
sg177
I75
sg176
I74
sg119
I17
sg134
I32
sg112
I10
sg165
I63
sg143
I41
sg152
I50
sg121
I19
sg160
I58
sg151
I49
sg153
I51
sg111
I9
sg161
I59
sg140
I38
sg193
I91
sg118
I16
sg190
I88
sg163
I61
sg145
I43
sg105
I3
sg107
I5
sg179
I77
sg124
I22
sg132
I30
sg170
I68
sg184
I82
sg162
I60
sg159
I57
sg139
I37
sg141
I39
sg155
I53
sg148
I46
sg137
I35
sg164
I62
sg136
I34
sg116
I14
sg103
I1
sg102
I0
sg126
I24
sg186
I84
sg181
I79
sg189
I87
sg138
I36
sg167
I65
sg171
I69
sg129
I27
sg114
I12
sg194
I92
sg109
I7
sg113
I11
sg149
I47
sg168
I66
sg115
I13
sg172
I70
sg147
I45
ssS'words'
p5002
(lp5003
g21
ag3446
ag197
ag2273
ag198
ag199
ag3329
ag2338
ag201
ag202
ag203
ag204
ag205
ag206
ag207
ag208
ag209
ag210
ag211
ag2518
ag213
ag1731
ag215
ag216
ag217
ag218
ag219
ag220
ag3333
ag221
ag1266
ag1734
ag223
ag224
ag226
ag227
ag228
ag2757
ag4828
ag3334
ag232
ag233
ag4600
ag234
ag235
ag236
ag3336
ag240
ag241
ag242
ag243
ag244
ag245
ag246
ag4163
ag248
ag249
ag250
ag252
ag253
ag4165
ag255
ag256
ag1737
ag258
ag259
ag260
ag4166
ag262
ag3322
ag2527
ag264
ag265
ag266
ag1914
ag268
ag269
ag270
ag3343
ag272
ag2529
ag3730
ag275
ag4351
ag277
ag278
ag279
ag280
ag281
ag4669
ag1609
ag282
ag283
ag284
ag285
ag286
ag287
ag288
ag289
ag290
ag3347
ag1742
ag294
ag295
ag296
ag297
ag299
ag4173
ag301
ag302
ag303
ag304
ag305
ag306
ag307
ag308
ag214
ag401
ag311
ag312
ag313
ag314
ag315
ag316
ag317
ag318
ag319
ag320
ag321
ag322
ag323
ag325
ag326
ag4832
ag2281
ag327
ag328
ag329
ag330
ag4178
ag332
ag333
ag334
ag335
ag337
ag338
ag339
ag1816
ag340
ag341
ag342
ag343
ag344
ag1668
ag346
ag3356
ag4548
ag348
ag1356
ag351
ag352
ag353
ag354
ag355
ag356
ag357
ag358
ag1750
ag360
ag3359
ag363
ag364
ag365
ag3254
ag367
ag368
ag369
ag370
ag371
ag372
ag1836
ag373
ag374
ag375
ag376
ag377
ag2083
ag1813
ag379
ag380
ag381
ag382
ag1754
ag385
ag386
ag387
ag389
ag3474
ag4959
ag391
ag392
ag393
ag394
ag395
ag3952
ag396
ag1408
ag398
ag399
ag400
ag1422
ag402
ag403
ag404
ag405
ag407
ag1449
ag3696
ag1709
ag410
ag3366
ag412
ag413
ag414
ag415
ag416
ag3471
ag418
ag419
ag420
ag421
ag424
ag425
ag426
ag427
ag428
ag1758
ag430
ag431
ag1928
ag433
ag434
ag435
ag4197
ag437
ag438
ag439
ag440
ag4237
ag441
ag442
ag444
ag445
ag446
ag1562
ag448
ag449
ag450
ag451
ag452
ag453
ag454
ag455
ag456
ag3372
ag458
ag459
ag460
ag461
ag462
ag463
ag464
ag465
ag466
ag467
ag468
ag469
ag2556
ag2384
ag1768
ag473
ag474
ag475
ag476
ag477
ag478
ag479
ag480
ag2865
ag481
ag482
ag2397
ag483
ag484
ag485
ag1771
ag4749
ag487
ag488
ag489
ag491
ag492
ag493
ag494
ag495
ag496
ag4393
ag497
ag1774
ag499
ag500
ag501
ag503
ag504
ag506
ag507
ag508
ag1775
ag510
ag511
ag512
ag513
ag1037
ag515
ag516
ag2151
ag517
ag518
ag2727
ag519
ag520
ag521
ag3421
ag522
ag2048
ag523
ag524
ag4996
ag526
ag527
ag528
ag529
ag530
ag531
ag532
ag4211
ag533
ag4212
ag535
ag536
ag537
ag538
ag539
ag540
ag1648
ag4213
ag543
ag1781
ag545
ag546
ag547
ag548
ag549
ag550
ag4402
ag552
ag553
ag554
ag555
ag556
ag557
ag888
ag2351
ag560
ag561
ag562
ag563
ag564
ag565
ag1786
ag1616
ag567
ag568
ag569
ag4254
ag571
ag572
ag573
ag1787
ag3365
ag751
ag4221
ag578
ag579
ag580
ag1789
ag2775
ag582
ag4995
ag583
ag584
ag585
ag586
ag588
ag2772
ag589
ag590
ag592
ag593
ag3394
ag595
ag596
ag4224
ag3321
ag598
ag599
ag600
ag1793
ag602
ag850
ag603
ag605
ag948
ag607
ag608
ag1795
ag610
ag611
ag612
ag2804
ag613
ag614
ag3398
ag615
ag616
ag617
ag4229
ag618
ag619
ag620
ag621
ag622
ag623
ag624
ag1798
ag627
ag628
ag629
ag630
ag631
ag4398
ag633
ag634
ag3402
ag636
ag637
ag639
ag3403
ag267
ag1799
ag3404
ag643
ag644
ag645
ag4771
ag647
ag648
ag649
ag650
ag651
ag652
ag654
ag4236
ag656
ag4522
ag657
ag2958
ag659
ag660
ag3331
ag661
ag1804
ag3935
ag663
ag664
ag4239
ag3742
ag666
ag667
ag1806
ag669
ag670
ag671
ag4574
ag672
ag673
ag674
ag1808
ag676
ag677
ag678
ag679
ag680
ag681
ag682
ag683
ag685
ag1593
ag686
ag687
ag688
ag689
ag690
ag276
ag1396
ag274
ag692
ag693
ag2231
ag694
ag4719
ag696
ag697
ag699
ag700
ag701
ag702
ag1434
ag703
ag704
ag705
ag706
ag707
ag708
ag709
ag710
ag711
ag712
ag3415
ag714
ag715
ag716
ag717
ag4316
ag720
ag721
ag722
ag723
ag724
ag725
ag1438
ag726
ag727
ag728
ag729
ag3417
ag731
ag732
ag4303
ag733
ag2591
ag734
ag735
ag736
ag737
ag2216
ag739
ag740
ag741
ag1819
ag3091
ag743
ag744
ag745
ag746
ag747
ag749
ag750
ag3478
ag1821
ag755
ag756
ag757
ag758
ag4255
ag760
ag761
ag4947
ag763
ag764
ag765
ag3425
ag767
ag3168
ag4027
ag770
ag2185
ag771
ag772
ag773
ag2090
ag2477
ag774
ag3344
ag775
ag776
ag777
ag778
ag779
ag780
ag781
ag783
ag2603
ag785
ag786
ag787
ag788
ag789
ag790
ag791
ag4734
ag792
ag3431
ag3777
ag1736
ag795
ag3788
ag797
ag799
ag794
ag800
ag801
ag802
ag803
ag804
ag4263
ag806
ag807
ag3267
ag1828
ag809
ag810
ag1829
ag812
ag813
ag1830
ag815
ag816
ag817
ag818
ag819
ag821
ag822
ag2457
ag1832
ag825
ag826
ag1833
ag828
ag829
ag830
ag2608
ag4268
ag833
ag834
ag835
ag836
ag837
ag2500
ag839
ag840
ag841
ag842
ag844
ag845
ag846
ag847
ag848
ag849
ag1839
ag851
ag852
ag3354
ag1840
ag854
ag855
ag856
ag857
ag4203
ag859
ag860
ag861
ag862
ag863
ag864
ag865
ag866
ag867
ag868
ag869
ag870
ag871
ag872
ag873
ag874
ag875
ag876
ag877
ag878
ag4276
ag4858
ag880
ag2327
ag881
ag882
ag883
ag884
ag885
ag887
ag3449
ag889
ag890
ag891
ag892
ag893
ag894
ag1848
ag896
ag2452
ag897
ag3450
ag899
ag900
ag901
ag902
ag903
ag904
ag905
ag906
ag907
ag4281
ag910
ag911
ag912
ag3453
ag914
ag2625
ag916
ag4021
ag2242
ag918
ag919
ag920
ag921
ag922
ag923
ag924
ag926
ag927
ag929
ag4287
ag931
ag932
ag933
ag935
ag1661
ag2393
ag937
ag939
ag940
ag941
ag942
ag943
ag944
ag1856
ag2535
ag4043
ag4822
ag949
ag950
ag951
ag1858
ag953
ag954
ag955
ag24
ag956
ag957
ag958
ag959
ag960
ag961
ag962
ag3464
ag964
ag965
ag966
ag967
ag969
ag2760
ag970
ag971
ag972
ag973
ag974
ag975
ag977
ag978
ag979
ag2940
ag980
ag981
ag982
ag983
ag984
ag985
ag986
ag987
ag988
ag989
ag2640
ag990
ag991
ag992
ag993
ag994
ag995
ag998
ag999
ag1000
ag1001
ag1868
ag1003
ag1255
ag1006
ag4748
ag1007
ag4307
ag1008
ag4570
ag1009
ag1010
ag1012
ag1013
ag1014
ag1015
ag1016
ag2648
ag1018
ag1019
ag1020
ag3477
ag3621
ag1023
ag1024
ag1025
ag1026
ag1027
ag1028
ag2651
ag1031
ag1032
ag1033
ag1456
ag1034
ag3481
ag1036
ag359
ag3482
ag1039
ag2989
ag1040
ag1041
ag1042
ag1043
ag2654
ag1045
ag1046
ag1047
ag1049
ag4312
ag2205
ag3533
ag1051
ag1052
ag1053
ag1054
ag1055
ag1056
ag1057
ag1058
ag1059
ag1060
ag2131
ag1061
ag1888
ag1063
ag1064
ag1118
ag1066
ag1068
ag1069
ag1070
ag2758
ag1071
ag879
ag4315
ag1073
ag1074
ag1075
ag1076
ag1077
ag1078
ag1079
ag1080
ag1081
ag1082
ag1083
ag1881
ag1085
ag1086
ag1089
ag1090
ag3491
ag3883
ag1093
ag1094
ag1095
ag4907
ag1096
ag1097
ag1098
ag2663
ag2750
ag1100
ag1101
ag1884
ag1103
ag1104
ag1105
ag1106
ag1107
ag1108
ag1109
ag1110
ag1111
ag4956
ag4323
ag1114
ag1115
ag1116
ag1117
ag1065
ag1119
ag350
ag1120
ag1121
ag1122
ag1123
ag1124
ag2876
ag1125
ag1126
ag1127
ag2626
ag4860
ag1128
ag1129
ag1130
ag1131
ag1132
ag1133
ag1134
ag1135
ag1136
ag1137
ag1138
ag3911
ag1140
ag1141
ag1143
ag1606
ag1145
ag1146
ag1147
ag1148
ag2669
ag4875
ag1150
ag1151
ag1152
ag1153
ag1154
ag3326
ag1155
ag1156
ag1157
ag1158
ag1159
ag1160
ag1161
ag1162
ag1164
ag1165
ag3502
ag1167
ag1168
ag2724
ag1171
ag1172
ag1173
ag1174
ag1175
ag3505
ag1177
ag1178
ag1179
ag3506
ag1181
ag1183
ag1182
ag1185
ag1186
ag4332
ag1188
ag1189
ag4341
ag3721
ag4945
ag1193
ag1502
ag3358
ag1510
ag1197
ag1198
ag1199
ag1200
ag1201
ag1202
ag2907
ag1203
ag1204
ag1206
ag1207
ag1208
ag1209
ag3704
ag1211
ag1212
ag1213
ag2682
ag1215
ag1216
ag1217
ag1218
ag1219
ag3720
ag3393
ag1222
ag1223
ag1224
ag1300
ag1226
ag1227
ag4338
ag1229
ag1230
ag1231
ag1232
ag1233
ag1234
ag1237
ag1765
ag1238
ag1239
ag1240
ag1241
ag1243
ag1244
ag1245
ag1246
ag1247
ag1248
ag1249
ag1250
ag1251
ag1252
ag1253
ag858
ag1254
ag1870
ag1257
ag1258
ag1259
ag3520
ag1261
ag2690
ag1263
ag1264
ag1265
ag2691
ag1267
ag1268
ag1269
ag1270
ag2366
ag1271
ag1272
ag2030
ag1273
ag1275
ag1276
ag4346
ag1373
ag1278
ag1527
ag1281
ag1282
ag1283
ag1284
ag1285
ag1286
ag3524
ag1288
ag2802
ag1290
ag2730
ag1292
ag1294
ag1295
ag1296
ag1297
ag1920
ag1298
ag796
ag1299
ag3700
ag1921
ag1301
ag1302
ag1303
ag1304
ag1305
ag2177
ag1307
ag1308
ag1309
ag1311
ag1312
ag2700
ag1314
ag4354
ag1316
ag1317
ag2395
ag1318
ag1319
ag1659
ag1320
ag1321
ag1322
ag3064
ag1323
ag1324
ag1325
ag1326
ag1327
ag1328
ag1329
ag1331
ag3177
ag1332
ag1333
ag1334
ag1335
ag1336
ag1337
ag1338
ag1340
ag1341
ag1342
ag2244
ag1344
ag1345
ag1346
ag1347
ag1349
ag1350
ag1351
ag1352
ag1353
ag1354
ag1355
ag2708
ag1357
ag4359
ag2441
ag1360
ag1004
ag1361
ag1362
ag1932
ag1359
ag1364
ag1365
ag1366
ag1367
ag2710
ag3537
ag1371
ag1372
ag1934
ag1375
ag1376
ag1377
ag4363
ag1378
ag1379
ag1380
ag1381
ag1382
ag1383
ag1384
ag3169
ag1385
ag1387
ag1388
ag1389
ag1390
ag1391
ag1392
ag1393
ag3542
ag1558
ag1397
ag1398
ag4366
ag1400
ag1176
ag1402
ag2841
ag1403
ag1404
ag1405
ag1406
ag3544
ag2773
ag397
ag4787
ag1410
ag1411
ag1940
ag1413
ag1415
ag1416
ag1417
ag1418
ag4910
ag1419
ag1420
ag1421
ag895
ag1423
ag1424
ag1692
ag2085
ag1426
ag1427
ag559
ag1428
ag1429
ag1430
ag1432
ag1433
ag2898
ag1435
ag4836
ag1437
ag2927
ag742
ag1439
ag1184
ag1440
ag1945
ag1443
ag1444
ag3360
ag1446
ag1447
ag1448
ag408
ag3534
ag1451
ag2439
ag1453
ag1454
ag1455
ag3551
ag1457
ag1458
ag1459
ag1460
ag1461
ag1462
ag1463
ag1464
ag1465
ag4707
ag4375
ag1467
ag1468
ag1469
ag1922
ag2911
ag1470
ag4444
ag1471
ag1472
ag1473
ag1474
ag1190
ag2728
ag1475
ag1191
ag1477
ag4380
ag4685
ag1479
ag1480
ag1481
ag1482
ag1953
ag1484
ag1485
ag1486
ag1487
ag4382
ag1489
ag3557
ag1491
ag1492
ag1493
ag1494
ag1495
ag1496
ag2463
ag1497
ag3558
ag1499
ag4383
ag1501
ag1194
ag1503
ag1504
ag1505
ag1506
ag2734
ag1508
ag1509
ag1195
ag930
ag1512
ag1513
ag3296
ag1514
ag1515
ag1517
ag3098
ag1518
ag1519
ag1520
ag2241
ag1521
ag3128
ag3014
ag1523
ag1524
ag1525
ag1526
ag3564
ag1528
ag1529
ag1530
ag1531
ag1532
ag1533
ag3563
ag457
ag1535
ag1536
ag4392
ag1538
ag4985
ag1539
ag1540
ag3667
ag1541
ag4394
ag1542
ag1543
ag1545
ag1546
ag1547
ag2675
ag1549
ag1550
ag3608
ag3566
ag1552
ag4396
ag3225
ag1554
ag609
ag1555
ag1556
ag1557
ag3790
ag1559
ag3610
ag1560
ag1561
ag3814
ag1563
ag1564
ag2747
ag1567
ag1568
ag1569
ag1570
ag1571
ag1572
ag1573
ag1574
ag1576
ag1577
ag1578
ag1579
ag1580
ag1581
ag2819
ag1583
ag1585
ag1586
ag4291
ag1587
ag1588
ag1589
ag1590
ag1785
ag1591
ag1592
ag4055
ag4404
ag1595
ag1973
ag3577
ag1597
ag4406
ag1599
ag1600
ag1601
ag1602
ag1603
ag2754
ag1605
ag4141
ag2755
ag4158
ag1610
ag3923
ag1612
ag1613
ag1614
ag1615
ag3822
ag1617
ag1618
ag1977
ag1620
ag1621
ag1622
ag1623
ag1624
ag1625
ag1626
ag3513
ag1627
ag1628
ag1629
ag3252
ag4412
ag1630
ag1631
ag4981
ag1634
ag1635
ag2034
ag1637
ag1638
ag1639
ag1641
ag4415
ag1643
ag3132
ag1645
ag1646
ag1647
ag4429
ag1649
ag1650
ag1651
ag1652
ag1653
ag1654
ag1655
ag1657
ag1658
ag4507
ag2534
ag1660
ag4527
ag1662
ag1664
ag1665
ag1666
ag1667
ag4579
ag1669
ag1670
ag3590
ag1672
ag3688
ag1673
ag1674
ag1675
ag1676
ag1677
ag4193
ag1678
ag1679
ag1680
ag1681
ag1682
ag1683
ag1685
ag3351
ag1686
ag1687
ag1688
ag1689
ag1690
ag1691
ag2292
ag1693
ag1694
ag1695
ag1696
ag3595
ag1698
ag1699
ag4430
ag805
ag1702
ag1703
ag1704
ag4150
ag1705
ag1706
ag1707
ag1708
ag4863
ag1710
ag1712
ag2771
ag1714
ag1715
ag1716
ag2286
ag1994
ag1718
ag1719
ag1720
ag1721
ag1722
ag1723
ag1724
ag1725
ag1726
ag1727
ag1728
ag1729
ag3392
ag1730
ag2550
ag4054
ag1732
ag1733
ag222
ag2274
ag1735
ag2237
ag257
ag3786
ag1738
ag1739
ag1740
ag293
ag1743
ag1744
ag1745
ag2825
ag1747
ag1748
ag2977
ag1749
ag4830
ag1751
ag1752
ag1753
ag383
ag1755
ag3606
ag2000
ag3541
ag4846
ag1760
ag3603
ag2780
ag1764
ag938
ag1766
ag1767
ag472
ag1769
ag1770
ag486
ag1772
ag1773
ag498
ag4882
ag509
ag471
ag1776
ag1777
ag1778
ag1779
ag1780
ag544
ag3636
ag1782
ag1783
ag1784
ag3327
ag566
ag574
ag1788
ag581
ag1790
ag1791
ag1792
ag601
ag1794
ag4785
ag1797
ag626
ag641
ag1800
ag1801
ag2494
ag2783
ag662
ag1805
ag668
ag1807
ag675
ag1809
ag1810
ag1811
ag1812
ag2705
ag1814
ag1815
ag2785
ag1817
ag3914
ag1818
ag1306
ag1820
ag752
ag1911
ag2990
ag1822
ag3760
ag2787
ag2024
ag1826
ag808
ag811
ag814
ag1831
ag824
ag827
ag1834
ag1835
ag4560
ag1837
ag1838
ag2311
ag853
ag1841
ag1842
ag1843
ag1844
ag1845
ag1846
ag1847
ag251
ag1849
ag1850
ag4457
ag1852
ag1853
ag1854
ag1855
ag4458
ag1857
ag952
ag1860
ag1861
ag1862
ag1863
ag3664
ag1865
ag1866
ag1867
ag1002
ag1869
ag1871
ag1872
ag1873
ag4461
ag1875
ag1876
ag2807
ag1877
ag1878
ag1879
ag1880
ag1084
ag1882
ag1883
ag1102
ag1885
ag1886
ag1260
ag4370
ag1889
ag1890
ag1891
ag3626
ag1893
ag1894
ag1895
ag1896
ag1897
ag3759
ag1898
ag1899
ag1900
ag1901
ag1903
ag1905
ag1907
ag1908
ag4657
ag1909
ag1910
ag2279
ag1913
ag2157
ag1915
ag1916
ag1917
ag1918
ag2759
ag1919
ag2021
ag3593
ag4710
ag2022
ag3896
ag1926
ag2023
ag3204
ag1929
ag4925
ag1931
ag1363
ag1933
ag3339
ag1935
ag1936
ag1937
ag1938
ag3635
ag1412
ag1941
ag1942
ag1943
ag2740
ag2201
ag1441
ag1946
ag1947
ag1948
ag2027
ag1950
ag2028
ag1952
ag1483
ag1954
ag1956
ag2448
ag1957
ag1958
ag3500
ag1960
ag1961
ag1962
ag3640
ag2806
ag1964
ag1594
ag1965
ag1966
ag1967
ag1968
ag1969
ag1970
ag1972
ag2814
ag1974
ag1975
ag1976
ag1619
ag4477
ag1979
ag1980
ag1981
ag1983
ag4479
ag1986
ag1987
ag1988
ag2632
ag2748
ag1989
ag1990
ag1991
ag1992
ag1993
ag1717
ag1995
ag1996
ag1997
ag3538
ag1756
ag4378
ag2002
ag2003
ag2004
ag2005
ag2006
ag4485
ag2008
ag2009
ag2010
ag2011
ag2012
ag2502
ag2013
ag2014
ag3654
ag2015
ag2016
ag2018
ag2042
ag2020
ag4841
ag1924
ag1927
ag3782
ag2025
ag1949
ag1951
ag4490
ag4034
ag3657
ag2031
ag2032
ag2033
ag1978
ag3658
ag2036
ag2037
ag2038
ag2039
ag2040
ag2041
ag2019
ag3882
ag2043
ag3660
ag2823
ag2047
ag1180
ag2236
ag2066
ag2049
ag2050
ag2051
ag2052
ag2053
ag2054
ag4146
ag2055
ag2056
ag2057
ag2827
ag4795
ag2059
ag2060
ag2061
ag2062
ag2063
ag2064
ag2065
ag3081
ag2068
ag2069
ag2070
ag2071
ag2072
ag2073
ag3695
ag2074
ag4124
ag2076
ag2077
ag2078
ag2079
ag2080
ag2082
ag2275
ag2084
ag23
ag2086
ag2087
ag2088
ag2089
ag2304
ag2091
ag4503
ag2093
ag2094
ag2095
ag2096
ag2097
ag2098
ag2099
ag2100
ag2101
ag2221
ag4504
ag2106
ag2107
ag3670
ag2110
ag2111
ag2112
ag2114
ag2115
ag2116
ag2837
ag2118
ag2119
ag2120
ag2121
ag3208
ag4051
ag2125
ag2126
ag3751
ag2127
ag2128
ag2867
ag2129
ag2130
ag2514
ag2132
ag2133
ag1761
ag4952
ag2134
ag2135
ag2058
ag2137
ag2138
ag4321
ag2555
ag2140
ag2141
ag2142
ag2143
ag2144
ag3677
ag2146
ag3678
ag2842
ag2149
ag2150
ag2628
ag2154
ag2155
ag2156
ag2936
ag2159
ag2160
ag2161
ag2163
ag2164
ag2165
ag2166
ag2167
ag4871
ag2845
ag4518
ag2846
ag2172
ag2173
ag3062
ag2174
ag2175
ag2176
ag4120
ag4624
ag2179
ag2180
ag1313
ag2181
ag2182
ag4988
ag4520
ag2184
ag4793
ag2186
ag2187
ag2188
ag2189
ag2190
ag3685
ag2193
ag2194
ag2195
ag2196
ag2197
ag2199
ag2200
ag2919
ag2202
ag2203
ag2204
ag2938
ag2206
ag4977
ag3732
ag2843
ag2211
ag2851
ag2212
ag4018
ag2213
ag2214
ag2215
ag2299
ag2217
ag2219
ag2220
ag3032
ag2222
ag2223
ag2224
ag2225
ag2226
ag2227
ag2228
ag2229
ag541
ag4768
ag2916
ag2230
ag3109
ag2232
ag2233
ag2234
ag2235
ag3141
ag3146
ag2238
ag2239
ag2240
ag3166
ag3170
ag2562
ag2853
ag3181
ag2245
ag2247
ag2248
ag2249
ag2250
ag3080
ag2251
ag936
ag2252
ag2253
ag2254
ag3693
ag2256
ag2258
ag2259
ag2260
ag2261
ag2262
ag3587
ag2263
ag2264
ag2265
ag2266
ag2267
ag3926
ag2269
ag2270
ag2860
ag2272
ag3383
ag2988
ag3893
ag2276
ag2277
ag2278
ag3429
ag2280
ag3443
ag2282
ag2283
ag2284
ag2285
ag3469
ag2287
ag4535
ag4874
ag2288
ag4009
ag2289
ag3305
ag2291
ag3528
ag2293
ag2294
ag2295
ag1368
ag2296
ag2297
ag2298
ag4666
ag2300
ag2301
ag4599
ag4467
ag3580
ag2752
ag4222
ag542
ag4425
ag2305
ag2306
ag2307
ag3885
ag2308
ag640
ag2310
ag2312
ag2313
ag2314
ag2315
ag2316
ag2858
ag2317
ag2318
ag3628
ag1050
ag2320
ag3948
ag2321
ag2322
ag2323
ag2324
ag2722
ag2326
ag4012
ag2328
ag2330
ag2331
ag2332
ag2333
ag2334
ag2335
ag2336
ag2337
ag200
ag2339
ag2340
ag2341
ag2342
ag2343
ag558
ag2344
ag2345
ag2346
ag2347
ag4125
ag2873
ag2349
ag2350
ag3499
ag2352
ag2103
ag2354
ag2355
ag2356
ag2357
ag2358
ag2359
ag2360
ag2361
ag2362
ag3712
ag2364
ag2365
ag3087
ag4029
ag2367
ag2368
ag2369
ag3909
ag2370
ag2371
ag2372
ag3715
ag2375
ag2376
ag2377
ag2378
ag2379
ag2380
ag2381
ag3937
ag2383
ag2491
ag2385
ag2386
ag2387
ag2388
ag2389
ag4971
ag2390
ag2392
ag4194
ag2394
ag3607
ag2396
ag4231
ag2398
ag2399
ag2400
ag2885
ag2401
ag2402
ag2403
ag2404
ag2405
ag2406
ag2408
ag3111
ag3433
ag2410
ag2411
ag898
ag2412
ag2413
ag2414
ag2415
ag2416
ag2417
ag2418
ag4896
ag2419
ag2420
ag2421
ag2422
ag3256
ag2423
ag2424
ag2425
ag2426
ag3826
ag2429
ag2430
ag3501
ag576
ag2431
ag2432
ag2433
ag2434
ag2435
ag3152
ag3728
ag4625
ag2438
ag4780
ag2440
ag577
ag4571
ag2442
ag2443
ag2444
ag2445
ag2446
ag4566
ag4602
ag2449
ag2893
ag2451
ag4615
ag2454
ag2894
ag2456
ag4640
ag2458
ag2459
ag2460
ag2462
ag4632
ag2464
ag2465
ag2466
ag2467
ag2468
ag2469
ag3735
ag2471
ag2472
ag3736
ag2475
ag2476
ag3737
ag2478
ag2479
ag4831
ag2481
ag2482
ag2483
ag1959
ag2484
ag2485
ag2117
ag2488
ag2489
ag2490
ag4845
ag4358
ag2492
ag2901
ag4867
ag3863
ag4842
ag2495
ag2496
ag2497
ag2498
ag2499
ag4906
ag2501
ag4912
ag2503
ag2504
ag2506
ag2507
ag2508
ag2509
ag2510
ag3745
ag2513
ag1490
ag4271
ag2515
ag2516
ag2905
ag212
ag2519
ag2520
ag2521
ag3891
ag2523
ag2720
ag3390
ag2524
ag2525
ag263
ag2528
ag273
ag4580
ag2530
ag2531
ag2532
ag2533
ag2912
ag309
ag2537
ag2539
ag2542
ag2543
ag2544
ag2545
ag3554
ag2546
ag2547
ag2136
ag2987
ag2549
ag748
ag2551
ag2552
ag2553
ag2554
ag2895
ag2139
ag470
ag2946
ag2558
ag2559
ag2560
ag4639
ag2561
ag502
ag3683
ag4330
ag2564
ag2565
ag2567
ag3915
ag2243
ag2569
ag766
ag2570
ag2571
ag2572
ag2573
ag2574
ag2575
ag3207
ag2576
ag2577
ag2578
ag2580
ag2581
ag4592
ag2583
ag4037
ag2584
ag2145
ag2585
ag3758
ag2587
ag2588
ag4797
ag2589
ag2590
ag3244
ag2592
ag2593
ag2594
ag2595
ag2597
ag2598
ag2599
ag2600
ag2602
ag784
ag2604
ag3282
ag2606
ag2607
ag831
ag2609
ag3764
ag3918
ag2611
ag2612
ag2613
ag2614
ag2615
ag2616
ag2617
ag2618
ag2619
ag2620
ag2622
ag2623
ag2624
ag915
ag4585
ag2627
ag934
ag2629
ag2630
ag947
ag2633
ag2634
ag2635
ag2636
ag2637
ag2638
ag2639
ag2704
ag2641
ag2643
ag2644
ag2645
ag2646
ag2928
ag1017
ag4814
ag2650
ag1030
ag3286
ag2653
ag1044
ag2655
ag3260
ag2656
ag2657
ag4725
ag2659
ag2660
ag2661
ag2662
ag1099
ag2665
ag2666
ag3357
ag2667
ag2932
ag1149
ag2670
ag2671
ag2672
ag2673
ag2674
ag1192
ag2676
ag2677
ag2678
ag2679
ag2680
ag4586
ag2681
ag1214
ag2684
ag2686
ag1401
ag2687
ag2937
ag1262
ag4702
ag3966
ag2693
ag2694
ag2695
ag2696
ag2697
ag2698
ag2699
ag443
ag2702
ag2703
ag4608
ag1399
ag239
ag2706
ag2707
ag3752
ag2709
ag2246
ag2711
ag2712
ag2713
ag2714
ag4972
ag2716
ag2717
ag2718
ag2692
ag2719
ag4690
ag3784
ag2925
ag1091
ag2726
ag366
ag4368
ag2729
ag3532
ag2731
ag2732
ag2733
ag1507
ag2735
ag2736
ag2737
ag2738
ag2862
ag2743
ag2744
ag2745
ag2746
ag1566
ag2774
ag2749
ag1955
ag2751
ag422
ag2753
ag1604
ag1608
ag2756
ag4379
ag4492
ag4997
ag2683
ag3731
ag2761
ag2762
ag2764
ag2765
ag2949
ag2766
ag2767
ag2768
ag2801
ag2950
ag2770
ag1713
ag4917
ag4915
ag2209
ag4974
ag4376
ag2428
ag2776
ag2777
ag2779
ag1763
ag3408
ag2781
ag2782
ag1803
ag4499
ag4428
ag2786
ag1823
ag2788
ag2789
ag2790
ag4506
ag2792
ag2793
ag2794
ag2795
ag2796
ag2797
ag2798
ag2799
ag2800
ag1923
ag1930
ag2803
ag4035
ag2805
ag4676
ag4626
ag3289
ag2808
ag2955
ag2809
ag2810
ag2811
ag2812
ag2813
ag2407
ag2816
ag2817
ag3872
ag2820
ag2821
ag2822
ag2045
ag2824
ag2046
ag2826
ag4064
ag2828
ag1425
ag4306
ag2830
ag2831
ag2832
ag2833
ag4660
ag2961
ag2836
ag3159
ag2839
ag2840
ag4298
ag2148
ag2153
ag2844
ag2169
ag2171
ag3202
ag2847
ag2848
ag4633
ag2850
ag2963
ag3277
ag2852
ag2382
ag4348
ag2854
ag2855
ag2856
ag2857
ag4508
ag2859
ag3832
ag2861
ag4637
ag4090
ag3385
ag2864
ag4513
ag2866
ag3074
ag2868
ag2869
ag2870
ag2871
ag2348
ag2874
ag2875
ag4961
ag3809
ag247
ag2877
ag2878
ag2879
ag2880
ag2881
ag2884
ag4834
ag2886
ag2887
ag2888
ag2889
ag3172
ag2890
ag2891
ag2892
ag2450
ag2455
ag4328
ag2896
ag2897
ag3811
ag2899
ag2900
ag2493
ag2902
ag2904
ag2517
ag4674
ag2908
ag2909
ag2910
ag4718
ag4802
ag2548
ag2913
ag2914
ag4924
ag2917
ag4106
ag2918
ag4647
ag2920
ag2921
ag2922
ag4648
ag3805
ag2926
ag4649
ag1092
ag2647
ag2929
ag2931
ag2668
ag4416
ag2934
ag2935
ag4936
ag2688
ag2207
ag2939
ag2715
ag2941
ag2942
ag2943
ag2944
ag2945
ag3171
ag2947
ag2948
ag4190
ag2769
ag2951
ag2952
ag2953
ag2954
ag2325
ag2791
ag2208
ag2956
ag3819
ag3562
ag2960
ag2835
ag2962
ag2536
ag2964
ag2965
ag2966
ag2210
ag2967
ag2968
ag2982
ag2970
ag1445
ag2972
ag2973
ag2974
ag2975
ag2976
ag2933
ag2978
ag2980
ag2981
ag2969
ag4015
ag3304
ag2984
ag2985
ag3000
ag3003
ag632
ag3965
ag2991
ag2992
ag2993
ag2994
ag2995
ag2996
ag3521
ag2999
ag3047
ag3001
ag3002
ag4614
ag3004
ag3005
ag3596
ag3006
ag3007
ag3009
ag3010
ag3011
ag3012
ag3013
ag3160
ag3015
ag3016
ag3017
ag3018
ag3019
ag3020
ag3021
ag3022
ag1225
ag3023
ag3024
ag3025
ag3027
ag3028
ag3029
ag3030
ag3031
ag3310
ag2290
ag3033
ag3034
ag3035
ag3036
ag4137
ag3038
ag1450
ag3039
ag3040
ag3041
ag3044
ag3045
ag3046
ag3048
ag4672
ag3050
ag3052
ag3053
ag4873
ag3055
ag4473
ag3057
ag3058
ag3059
ag3061
ag3463
ag3063
ag3473
ag3065
ag3066
ag3164
ag3068
ag3069
ag4646
ag3071
ag3072
ag1874
ag3075
ag3076
ag3077
ag3078
ag3079
ag3570
ag3574
ag3082
ag3083
ag3084
ag3085
ag3086
ag3422
ag3838
ag3088
ag3089
ag3090
ag3613
ag3092
ag3093
ag3094
ag3095
ag3096
ag3097
ag653
ag3099
ag3100
ag3101
ag4680
ag3103
ag3104
ag3105
ag3106
ag1598
ag390
ag3110
ag754
ag3112
ag3113
ag3114
ag3115
ag3116
ag3117
ag3118
ag3119
ag3120
ag3121
ag4537
ag3906
ag3125
ag3126
ag3127
ag3845
ag4683
ag3130
ag3131
ag4604
ag4525
ag3133
ag3847
ag3135
ag3711
ag2652
ag3136
ag3137
ag3138
ag3139
ag3140
ag3927
ag3142
ag3850
ag3144
ag3145
ag3954
ag3147
ag3148
ag3663
ag3150
ag3151
ag2621
ag3153
ag3154
ag3155
ag3156
ag3157
ag3852
ag4318
ag3161
ag3163
ag3616
ag3165
ag4699
ag3167
ag4184
ag4072
ag4080
ag3854
ag3173
ag3174
ag3175
ag3176
ag4108
ag3178
ag3179
ag3180
ag4435
ag4804
ag3182
ag3183
ag3184
ag3185
ag3186
ag3187
ag3216
ag3188
ag3189
ag3190
ag3191
ag4951
ag3193
ag3194
ag3195
ag3196
ag3198
ag3199
ag3200
ag3201
ag4272
ag3203
ag4277
ag3205
ag3206
ag417
ag4304
ag3209
ag3210
ag3211
ag3212
ag3213
ag17
ag3214
ag3561
ag3215
ag4483
ag4053
ag3218
ag3219
ag3220
ag3221
ag3222
ag3223
ag4103
ag3226
ag3227
ag3229
ag3230
ag3231
ag3232
ag3233
ag3234
ag3235
ag3236
ag3237
ag3238
ag3239
ag3240
ag3629
ag3241
ag3242
ag3243
ag4524
ag3245
ag3246
ag3247
ag3248
ag3249
ag4565
ag3253
ag4573
ag3255
ag2271
ag3257
ag3258
ag3259
ag2838
ag3261
ag3262
ag3263
ag3264
ag3265
ag3266
ag976
ag4678
ag3268
ag3269
ag3873
ag3271
ag3272
ag3273
ag3274
ag3275
ag3276
ag4350
ag3278
ag3279
ag3280
ag3281
ag1431
ag3283
ag4712
ag3285
ag4550
ag4764
ag3287
ag4713
ag3290
ag3291
ag3292
ag3293
ag3294
ag3295
ag1220
ag3297
ag3298
ag3299
ag3300
ag3301
ag3302
ag3303
ag4990
ag409
ag3306
ag3307
ag3308
ag3309
ag1700
ag3391
ag3312
ag3313
ag3314
ag3315
ag3316
ag3887
ag3317
ag3318
ag3319
ag3320
ag3878
ag2642
ag3323
ag3324
ag3879
ag2741
ag4999
ag3328
ag3674
ag3330
ag945
ag3332
ag823
ag231
ag4821
ag3337
ag3338
ag3340
ag3341
ag3342
ag271
ag3438
ag713
ag3345
ag2113
ag3348
ag3349
ag4727
ag2017
ag3352
ag3884
ag996
ag3355
ag347
ag4547
ag3605
ag361
ag3701
ag3361
ag525
ag3362
ag3975
ag4935
ag411
ag3888
ag3368
ag3369
ag3889
ag3371
ag388
ag3373
ag3374
ag3839
ag4731
ag3376
ag3377
ag3378
ag3515
ag3379
ag3380
ag3381
ag3382
ag2923
ag3384
ag4532
ag3386
ag738
ag3387
ag3388
ag3389
ag4596
ag575
ag2906
ag1511
ag594
ag3397
ag1887
ag3399
ag3400
ag3401
ag635
ag3981
ag642
ag3405
ag3898
ag3407
ag4801
ag4182
ag3409
ag3619
ag3411
ag3412
ag3413
ag928
ag3416
ag730
ag3418
ag3419
ag3420
ag3903
ag3423
ag3424
ag3056
ag1963
ag3426
ag3427
ag3428
ag3430
ag793
ag3432
ag406
ag3434
ag3435
ag3436
ag3753
ag3437
ag838
ag3439
ag3440
ag3441
ag3442
ag4987
ag3444
ag3445
ag3448
ag2872
ag2778
ag3451
ag19
ag3452
ag913
ag3454
ag3455
ag3456
ag3907
ag3458
ag3459
ag3460
ag3461
ag1925
ag963
ag3465
ag3466
ag3467
ag3468
ag3961
ag3470
ag3250
ag3472
ag684
ag4438
ag3475
ag1021
ag1998
ag3479
ag3480
ag1035
ag1038
ag3483
ag3484
ag3485
ag3486
ag3487
ag3488
ag3489
ag3490
ag4630
ag3492
ag3781
ag3493
ag3494
ag3495
ag3496
ag3498
ag4750
ag4256
ag4904
ag1166
ag3503
ag1544
ag886
ag3508
ag3913
ag3510
ag3512
ag2540
ag3514
ag1088
ag3516
ag3517
ag3518
ag3519
ag2664
ag4248
ag3522
ag3523
ag1287
ag3526
ag3527
ag4758
ag3529
ag3530
ag3531
ag2849
ag4643
ag2538
ag3535
ag3536
ag1370
ag3507
ag3539
ag3540
ag1395
ag4730
ag3543
ag1407
ag3545
ag4761
ag3548
ag3549
ag3851
ag3552
ag3553
ag1476
ag3555
ag3556
ag4440
ag4816
ag1498
ag3559
ag3924
ag1516
ag1522
ag3583
ag1534
ag4174
ag3565
ag1551
ag3568
ag3569
ag1575
ag3571
ag3572
ag3573
ag3228
ag2302
ag3928
ag3576
ag1912
ag3578
ag3579
ag3581
ag3582
ag1636
ag3584
ag3585
ag3586
ag1656
ag3588
ag1671
ag3591
ag3592
ag3789
ag3594
ag1697
ag3687
ag4704
ag3597
ag3598
ag3599
ag3600
ag769
ag3601
ag3602
ag4456
ag4116
ag1584
ag3604
ag4468
ag4400
ag4347
ag3931
ag4217
ag1802
ag3611
ag3612
ag691
ag3614
ag3615
ag29
ag3617
ag4777
ag2470
ag4452
ag3620
ag2453
ag3622
ag3623
ag658
ag1892
ag3627
ag1904
ag1640
ag3630
ag3631
ag4474
ag3632
ag3633
ag3634
ag3567
ag1944
ag3637
ag3638
ag3639
ag3675
ag3641
ag3642
ag3643
ag3644
ag3645
ag3646
ag3647
ag3648
ag3649
ag3650
ag3651
ag3652
ag3653
ag3942
ag3656
ag1902
ag2035
ag3659
ag2044
ag3661
ag3771
ag4013
ag3665
ag3666
ag3609
ag3668
ag3669
ag2108
ag3671
ag3672
ag3673
ag2124
ag4792
ag3676
ag4038
ag2147
ag3679
ag3680
ag3681
ag3682
ag2178
ag3684
ag2191
ag3686
ag3869
ag4799
ag3689
ag3690
ag3691
ag3692
ag2255
ag3694
ag3224
ag3801
ag3697
ag3698
ag4033
ag2309
ag3702
ag3703
ag1210
ag2319
ag3955
ag3707
ag3708
ag3709
ag3710
ag1358
ag2363
ag3713
ag3714
ag3987
ag4692
ag3958
ag3718
ag3719
ag3662
ag3311
ag3722
ag3723
ag3724
ag3725
ag3726
ag3727
ag2436
ag3729
ag4371
ag2903
ag3699
ag3733
ag3734
ag3497
ag2474
ag1999
ag3738
ag3739
ag3740
ag3741
ag4697
ag3743
ag3744
ag3705
ag2511
ag3746
ag3747
ag3748
ag3749
ag3750
ag1553
ag2557
ag2563
ag3754
ag3755
ag3756
ag3757
ag2586
ag1235
ag3447
ag3761
ag3762
ag3763
ag2610
ag3765
ag4800
ag3767
ag3768
ag3769
ag3770
ag3772
ag3773
ag3774
ag3776
ag2541
ag3779
ag3780
ag2834
ag3796
ag2721
ag3785
ag3871
ag3787
ag3346
ag3070
ag514
ag3791
ag3792
ag3793
ag3794
ag3797
ag3798
ag3799
ag3800
ag3802
ag2863
ag3807
ag3808
ag4233
ag3810
ag4878
ag447
ag3812
ag3815
ag3974
ag4139
ag3818
ag2957
ag3820
ag3821
ag4868
ag3824
ag4905
ag3827
ag3828
ag3829
ag3830
ag3831
ag4517
ag3037
ag3833
ag3834
ag3835
ag3836
ag4439
ag4185
ag3840
ag3841
ag3842
ag4903
ag3844
ag4556
ag3846
ag3134
ag3848
ag3849
ag1611
ag3410
ag3158
ag3979
ag1348
ag3855
ag3857
ag3980
ag3859
ag3860
ag3861
ag3862
ag3964
ag3864
ag3865
ag3866
ag3867
ag3868
ag3123
ag3870
ag4423
ag3270
ag3874
ag3876
ag3877
ag3625
ag3325
ag3880
ag3881
ag2461
ag1386
ag3353
ag4902
ag3886
ag3364
ag3367
ag3370
ag3890
ag1757
ag1221
ag3892
ag4588
ag3894
ag3895
ag3395
ag3897
ag3406
ag3899
ag3900
ag3901
ag3902
ag3904
ag3905
ag4908
ag3457
ag3908
ag4162
ag3910
ag1139
ag3912
ag3509
ag4433
ag698
ag3916
ag3917
ag4962
ag3919
ag3993
ag3921
ag1414
ag3560
ag3925
ag4888
ag1274
ag3575
ag3929
ag3930
ag3217
ag3932
ag3933
ag3934
ag3143
ag1859
ag3936
ag968
ag4417
ag3939
ag3940
ag3026
ag3943
ag3944
ag3945
ag3946
ag3947
ag3107
ag3949
ag3950
ag3951
ag4427
ag3953
ag4300
ag3706
ag3956
ag3957
ag3717
ag4533
ag3959
ag3960
ag3197
ag3962
ag3963
ag4827
ag3775
ag3967
ag436
ag3968
ag3969
ag3970
ag3971
ag3972
ag3973
ag3816
ag1827
ag3976
ag3991
ag3977
ag3978
ag3853
ag3858
ag3982
ag3983
ag3984
ag3985
ag3986
ag3988
ag3989
ag3990
ag2829
ag3992
ag4589
ag3994
ag3995
ag3996
ag3997
ag3998
ag3999
ag4000
ag4001
ag4002
ag4003
ag4004
ag4005
ag4006
ag4007
ag4008
ag1256
ag4011
ag4010
ag229
ag925
ag2409
ag4014
ag4036
ag4016
ag4017
ag4073
ag4019
ag4020
ag4078
ag4022
ag4023
ag4024
ag4025
ag4026
ag4601
ag4028
ag4127
ag4030
ag4031
ag4032
ag4180
ag4201
ag4219
ag4039
ag4041
ag4279
ag4045
ag4046
ag4653
ag4047
ag4048
ag4049
ag4050
ag3162
ag4052
ag1442
ag2353
ag2092
ag4353
ag4056
ag4057
ag4058
ag4059
ag4060
ag4061
ag4062
ag4063
ag4403
ag4065
ag4066
ag4067
ag4843
ag4069
ag4070
ag4071
ag310
ag4454
ag4074
ag4075
ag4076
ag4077
ag490
ag4079
ag4978
ag4081
ag4082
ag4083
ag4084
ag4085
ag4086
ag4087
ag4088
ag4089
ag2480
ag1632
ag4091
ag4092
ag4093
ag4094
ag4095
ag1343
ag4096
ag3054
ag4097
ag4098
ag4099
ag4100
ag4101
ag4102
ag4696
ag4104
ag4105
ag1330
ag4107
ag4109
ag4110
ag4111
ag4112
ag4113
ag4114
ag4115
ag4819
ag4117
ag4119
ag4786
ag4121
ag4122
ag4123
ag4810
ag4818
ag4126
ag1746
ag4128
ag4129
ag4130
ag4131
ag4132
ag4133
ag4134
ag4135
ag4136
ag4196
ag4138
ag4900
ag4140
ag4607
ag4143
ag4144
ag4145
ag4940
ag4147
ag4148
ag4149
ag2685
ag4151
ag4152
ag4153
ag4155
ag4156
ag4157
ag3073
ag4159
ag4160
ag4862
ag292
ag4164
ag254
ag261
ag4167
ag4168
ag4169
ag4170
ag4214
ag4171
ag4172
ag4539
ag4189
ag4866
ag4176
ag4177
ag331
ag4179
ag3108
ag4682
ag4711
ag4183
ag3051
ag2183
ag4869
ag4187
ag4188
ag298
ag4191
ag4192
ag3192
ag423
ag4195
ag1022
ag4659
ag4198
ag4200
ag1277
ag4202
ag1582
ag4204
ag4206
ag4207
ag4208
ag4209
ag4210
ag2739
ag4569
ag2579
ag4655
ag4215
ag4216
ag762
ag4218
ag4557
ag4220
ag2486
ag3589
ag4223
ag597
ag4225
ag4227
ag4228
ag820
ag4230
ag570
ag4232
ag4234
ag4235
ag655
ag3920
ag4238
ag665
ag4240
ag4241
ag4243
ag4244
ag4246
ag4247
ag718
ag4249
ag4250
ag4251
ag4252
ag4253
ag1087
ag759
ag1369
ag4257
ag4258
ag4259
ag4260
ag4333
ag4261
ag4262
ag2162
ag4264
ag4265
ag4266
ag4267
ag832
ag4269
ag4270
ag4273
ag4274
ag4275
ag3149
ag4511
ag1642
ag4280
ag3938
ag908
ag4282
ag4284
ag4285
ag4286
ag2374
ag4288
ag4289
ag4290
ag1982
ag4292
ag4293
ag4294
ag4295
ag4296
ag4297
ag2882
ag4299
ag4301
ag4302
ag4616
ag4590
ag4305
ag4809
ag4610
ag4308
ag4309
ag4310
ag4311
ag2815
ag4313
ag1072
ag4671
ag4317
ag4754
ag4319
ag4320
ag3875
ag4322
ag1112
ag4324
ag4325
ag4982
ag4326
ag4327
ag1163
ag4329
ag4540
ag4894
ag4331
ag1187
ag2763
ag4334
ag4335
ag4895
ag4337
ag1228
ag2983
ag4339
ag4340
ag4927
ag4342
ag4343
ag4344
ag1005
ag625
ag4349
ag1293
ag1169
ag4352
ag1310
ag1315
ag4355
ag4356
ag4898
ag2102
ag1289
ag4360
ag4361
ag4362
ag1711
ag4364
ag4365
ag638
ag4367
ag1409
ag4369
ag2192
ag4372
ag4373
ag4374
ag1466
ag1548
ag4377
ag2505
ag3804
ag1478
ag2522
ag4381
ag1488
ag1500
ag4384
ag4385
ag4386
ag4387
ag4388
ag4389
ag4390
ag4391
ag1537
ag2373
ag2437
ag4395
ag4199
ag3922
ag4399
ag1824
ag4401
ag1279
ag3008
ag4405
ag2689
ag4407
ag4408
ag4409
ag4410
ag4411
ag1633
ag4413
ag4414
ag2329
ag3843
ag225
ag4419
ag4420
ag4421
ag1864
ag4422
ag2123
ag4424
ag1684
ag4426
ag4909
ag2701
ag4555
ag2122
ag4431
ag4432
ag4434
ag4501
ag4436
ag4437
ag1062
ag1741
ag4441
ag4442
ag4443
ag4784
ag300
ag237
ag4445
ag4447
ag4448
ag4449
ag4450
ag4451
ag1825
ag4453
ag3414
ag4455
ag3783
ag1851
ag4808
ag4459
ag4460
ag4838
ag4462
ag4463
ag4464
ag4466
ag1291
ag4478
ag4469
ag4068
ag4916
ag4471
ag4472
ag1205
ag606
ag2986
ag4475
ag4476
ag2257
ag1436
ag1984
ag4480
ag4481
ag4482
ag1644
ag4484
ag2007
ag4486
ag4487
ag4488
ag4489
ag2029
ag4491
ag4493
ag4494
ag4495
ag4496
ag4497
ag4498
ag4500
ag2081
ag4855
ag2104
ag4922
ag3504
ag591
ag3067
ag4509
ag4510
ag4512
ag4514
ag4516
ag534
ag2170
ag4519
ag4733
ag4521
ag2997
ag4523
ag1985
ag4526
ag4528
ag4529
ag4530
ag4531
ag3803
ag1906
ag4928
ag2959
ag4536
ag1939
ag4538
ag4541
ag4542
ag4543
ag4544
ag4545
ag4546
ag2915
ag1196
ag4549
ag4042
ag4552
ag4553
ag4554
ag1565
ag4558
ag4559
ag4930
ag4561
ag4562
ag4563
ag4564
ag2723
ag2447
ag4567
ag4568
ag3122
ag2473
ag4572
ag336
ag2218
ag4575
ag4576
ag4577
ag4578
ag4118
ag1170
ag4581
ag4582
ag4583
ag4584
ag238
ag378
ag4587
ag2198
ag2568
ag4591
ag2582
ag4593
ag4594
ag4595
ag2596
ag4597
ag4598
ag4040
ag3856
ag2649
ag4603
ag3462
ag4605
ag4606
ag2158
ag4609
ag4283
ag4611
ag4612
ag4613
ag4767
ag2742
ag3550
ag4617
ag4618
ag4619
ag4621
ag4622
ag917
ag349
ag2526
ag2001
ag4627
ag4629
ag4446
ag4631
ag505
ag2075
ag4634
ag4635
ag4636
ag3941
ag4638
ag3042
ag2883
ag4641
ag4642
ag4644
ag4645
ag4620
ag2268
ag2924
ag4829
ag4650
ag4651
ag4652
ag4245
ag4654
ag3124
ag4656
ag2152
ag4658
ag4205
ag384
ag4661
ag4662
ag4663
ag4664
ag4665
ag695
ag4667
ag4668
ag4142
ag4670
ag3049
ag4673
ag4675
ag3823
ag4677
ag4887
ag4679
ag3102
ag4681
ag4181
ag4949
ag3129
ag4684
ag4502
ag4686
ag4687
ag4688
ag4689
ag4278
ag4691
ag782
ag4693
ag4695
ag4698
ag4700
ag4701
ag4954
ag4847
ag4705
ag4706
ag432
ag1762
ag4708
ag4709
ag2658
ag3284
ag1048
ag4715
ag4716
ag4717
ag646
ag1242
ag4720
ag4721
ag4722
ag4723
ag4724
ag1394
ag4726
ag3350
ag4728
ag4729
ag2168
ag3375
ag4732
ag2605
ag4735
ag4736
ag4737
ag4738
ag4739
ag4740
ag4741
ag4742
ag4744
ag4745
ag4746
ag4747
ag798
ag768
ag4876
ag4751
ag4752
ag4753
ag1280
ag4755
ag4756
ag4757
ag2998
ag4759
ag4760
ag3547
ag4762
ag4763
ag2979
ag4765
ag4766
ag1759
ag3655
ag4769
ag4770
ag4826
ag4772
ag4773
ag4774
ag4775
ag4776
ag3618
ag4778
ag4779
ag3716
ag4781
ag4897
ag4782
ag4783
ag345
ag4226
ag4788
ag4789
ag4790
ag4791
ag3825
ag4794
ag1029
ag4796
ag4242
ag4798
ag3766
ag4994
ag3778
ag4803
ag2427
ag4805
ag4806
ag4807
ag946
ag2971
ag2601
ag551
ag4811
ag4813
ag2512
ag4815
ag3525
ag4817
ag4820
ag4345
ag3817
ag4823
ag4824
ag4825
ag3476
ag1596
ag4465
ag4852
ag1113
ag1067
ag4833
ag1011
ag4835
ag997
ag4837
ag4839
ag4840
ag1374
ag3837
ag362
ag4844
ag291
ag4848
ag4849
ag4850
ag4851
ag4853
ag4854
ag3795
ag4856
ag4857
ag3060
ag4859
ag4044
ag4861
ag4161
ag1452
ag4864
ag4865
ag4175
ag324
ag909
ag4186
ag4870
ag1144
ag4872
ag604
ag843
ag2930
ag3511
ag4877
ag4879
ag4880
ag4881
ag429
ag4883
ag4884
ag4885
ag4886
ag1607
ag2631
ag4889
ag4890
ag4891
ag4892
ag4893
ag2818
ag4336
ag2487
ag2566
ag2303
ag4357
ag4899
ag1701
ag4901
ag2109
ag3335
ag4714
ag2391
ag4397
ag3043
ag4418
ag3363
ag2067
ag4911
ag3251
ag4913
ag4914
ag230
ag4470
ag4694
ag4918
ag4919
ag4920
ag4921
ag4505
ag4923
ag4515
ag587
ag4926
ag4534
ag3624
ag4929
ag2105
ag4931
ag4932
ag4933
ag4934
ag4623
ag4937
ag4938
ag4939
ag4628
ag4941
ag4942
ag4943
ag4944
ag2784
ag4946
ag1142
ag4948
ag719
ag4950
ag3546
ag3806
ag4953
ag4703
ag4955
ag2725
ag4957
ag4958
ag1236
ag4154
ag4963
ag4964
ag4965
ag4966
ag4967
ag4968
ag4969
ag4970
ag4743
ag4812
ag4973
ag1971
ag4975
ag4976
ag1339
ag3813
ag4979
ag4980
ag2026
ag3396
ag4983
ag4984
ag4551
ag4986
ag1663
ag4989
ag1796
ag4991
ag4992
ag4993
ag4960
ag753
ag3288
ag4998
ag4314
asS'label_dict'
p5004
(dp5005
g54
I0
sg55
I1
sg56
I2
sg57
I3
sg58
I4
sg59
I5
sg60
I6
sg61
I7
sg62
I8
sg63
I9
sg93
I39
sg65
I11
sg66
I12
sg67
I13
sg68
I14
sg69
I15
sg70
I16
sg71
I17
sg72
I18
sg73
I19
sg74
I20
sg75
I21
sg76
I22
sg77
I23
sg78
I24
sg79
I25
sg80
I26
sg81
I27
sg82
I28
sg83
I29
sg84
I30
sg85
I31
sg86
I32
sg87
I33
sg88
I34
sg89
I35
sg90
I36
sg91
I37
sg92
I38
sg64
I10
sg94
I40
sg95
I41
sg96
I42
sg97
I43
sg98
I44
sg99
I45
ssb(inet_properties
NetProperties
p5006
(dp5007
S'label_embed_dim'
p5008
I32
sS'pos_embed_dim'
p5009
I32
sS'word_embed_dim'
p5010
I64
sS'hidden_dim_2'
p5011
I200
sS'hidden_dim_1'
p5012
I200
sS'minibatch_size'
p5013
I1000
sbtp5014
.